
main.elf:     file format elf32-littleriscv


Disassembly of section .text:

00000000 <_isr_handler>:
       0:	0080006f          	j	8 <_isr_routine>
       4:	1440006f          	j	148 <_start>

00000008 <_isr_routine>:
       8:	f8010113          	addi	sp,sp,-128
       c:	00112023          	sw	ra,0(sp)
      10:	00312423          	sw	gp,8(sp)
      14:	00412623          	sw	tp,12(sp)
      18:	00512823          	sw	t0,16(sp)
      1c:	00612a23          	sw	t1,20(sp)
      20:	00712c23          	sw	t2,24(sp)
      24:	00812e23          	sw	s0,28(sp)
      28:	02912023          	sw	s1,32(sp)
      2c:	02a12223          	sw	a0,36(sp)
      30:	02b12423          	sw	a1,40(sp)
      34:	02c12623          	sw	a2,44(sp)
      38:	02d12823          	sw	a3,48(sp)
      3c:	02e12a23          	sw	a4,52(sp)
      40:	02f12c23          	sw	a5,56(sp)
      44:	03012e23          	sw	a6,60(sp)
      48:	05112023          	sw	a7,64(sp)
      4c:	05212223          	sw	s2,68(sp)
      50:	05312423          	sw	s3,72(sp)
      54:	05412623          	sw	s4,76(sp)
      58:	05512823          	sw	s5,80(sp)
      5c:	05612a23          	sw	s6,84(sp)
      60:	05712c23          	sw	s7,88(sp)
      64:	05812e23          	sw	s8,92(sp)
      68:	07912023          	sw	s9,96(sp)
      6c:	07a12223          	sw	s10,100(sp)
      70:	07b12423          	sw	s11,104(sp)
      74:	07c12623          	sw	t3,108(sp)
      78:	07d12823          	sw	t4,112(sp)
      7c:	07e12a23          	sw	t5,116(sp)
      80:	07f12c23          	sw	t6,120(sp)
      84:	342022f3          	csrr	t0,mcause
      88:	80000337          	lui	t1,0x80000
      8c:	02536463          	bltu	t1,t0,b4 <external_irq>
      90:	00028833          	add	a6,t0,zero
      94:	00b00313          	li	t1,11
      98:	00628463          	beq	t0,t1,a0 <skip_init_args>
      9c:	34102573          	csrr	a0,mepc

000000a0 <skip_init_args>:
      a0:	654000ef          	jal	ra,6f4 <handle_exception>
      a4:	341022f3          	csrr	t0,mepc
      a8:	00428293          	addi	t0,t0,4
      ac:	34129073          	csrw	mepc,t0
      b0:	0180006f          	j	c8 <restore>

000000b4 <external_irq>:
      b4:	800002b7          	lui	t0,0x80000
      b8:	fff28293          	addi	t0,t0,-1 # 7fffffff <_stack_end+0x7fefcff7>
      bc:	34202373          	csrr	t1,mcause
      c0:	0062f533          	and	a0,t0,t1
      c4:	49d000ef          	jal	ra,d60 <handle_interrupt>

000000c8 <restore>:
      c8:	00012083          	lw	ra,0(sp)
      cc:	00812183          	lw	gp,8(sp)
      d0:	00c12203          	lw	tp,12(sp)
      d4:	01012283          	lw	t0,16(sp)
      d8:	01412303          	lw	t1,20(sp)
      dc:	01812383          	lw	t2,24(sp)
      e0:	01c12403          	lw	s0,28(sp)
      e4:	02012483          	lw	s1,32(sp)
      e8:	02412503          	lw	a0,36(sp)
      ec:	02812583          	lw	a1,40(sp)
      f0:	02c12603          	lw	a2,44(sp)
      f4:	03012683          	lw	a3,48(sp)
      f8:	03412703          	lw	a4,52(sp)
      fc:	03812783          	lw	a5,56(sp)
     100:	03c12803          	lw	a6,60(sp)
     104:	04012883          	lw	a7,64(sp)
     108:	04412903          	lw	s2,68(sp)
     10c:	04812983          	lw	s3,72(sp)
     110:	04c12a03          	lw	s4,76(sp)
     114:	05012a83          	lw	s5,80(sp)
     118:	05412b03          	lw	s6,84(sp)
     11c:	05812b83          	lw	s7,88(sp)
     120:	05c12c03          	lw	s8,92(sp)
     124:	06012c83          	lw	s9,96(sp)
     128:	06412d03          	lw	s10,100(sp)
     12c:	06812d83          	lw	s11,104(sp)
     130:	06c12e03          	lw	t3,108(sp)
     134:	07012e83          	lw	t4,112(sp)
     138:	07412f03          	lw	t5,116(sp)
     13c:	07812f83          	lw	t6,120(sp)
     140:	08010113          	addi	sp,sp,128
     144:	30200073          	mret

00000148 <_start>:
     148:	30401073          	csrw	mie,zero
     14c:	00103117          	auipc	sp,0x103
     150:	ebc10113          	addi	sp,sp,-324 # 103008 <_stack_end>
     154:	00002197          	auipc	gp,0x2
     158:	59418193          	addi	gp,gp,1428 # 26e8 <__global_pointer>
     15c:	00002517          	auipc	a0,0x2
     160:	cf850513          	addi	a0,a0,-776 # 1e54 <welcome_msg>
     164:	00400893          	li	a7,4
     168:	00000073          	ecall
     16c:	575000ef          	jal	ra,ee0 <main>

00000170 <loop>:
     170:	0000006f          	j	170 <loop>

00000174 <enable_interrupt>:
     174:	30486073          	csrsi	mie,16
     178:	30496073          	csrsi	mie,18
     17c:	3001e073          	csrsi	mstatus,3
     180:	00008067          	ret

00000184 <my_rand>:
     184:	000026b7          	lui	a3,0x2
     188:	ee86a783          	lw	a5,-280(a3) # 1ee8 <seed>
     18c:	41c65737          	lui	a4,0x41c65
     190:	e6d70713          	addi	a4,a4,-403 # 41c64e6d <_stack_end+0x41b61e65>
     194:	02e787b3          	mul	a5,a5,a4
     198:	00003737          	lui	a4,0x3
     19c:	03970713          	addi	a4,a4,57 # 3039 <__global_pointer+0x951>
     1a0:	00e787b3          	add	a5,a5,a4
     1a4:	00179513          	slli	a0,a5,0x1
     1a8:	eef6a423          	sw	a5,-280(a3)
     1ac:	01155513          	srli	a0,a0,0x11
     1b0:	00008067          	ret

000001b4 <boss_take_action>:
     1b4:	000026b7          	lui	a3,0x2
     1b8:	ee86a783          	lw	a5,-280(a3) # 1ee8 <seed>
     1bc:	41c65737          	lui	a4,0x41c65
     1c0:	e6d70713          	addi	a4,a4,-403 # 41c64e6d <_stack_end+0x41b61e65>
     1c4:	02e787b3          	mul	a5,a5,a4
     1c8:	00003737          	lui	a4,0x3
     1cc:	03970713          	addi	a4,a4,57 # 3039 <__global_pointer+0x951>
     1d0:	ff010113          	addi	sp,sp,-16
     1d4:	00812423          	sw	s0,8(sp)
     1d8:	00112623          	sw	ra,12(sp)
     1dc:	00912223          	sw	s1,4(sp)
     1e0:	00050413          	mv	s0,a0
     1e4:	00e787b3          	add	a5,a5,a4
     1e8:	0107d713          	srli	a4,a5,0x10
     1ec:	eef6a423          	sw	a5,-280(a3)
     1f0:	00177793          	andi	a5,a4,1
     1f4:	04078e63          	beqz	a5,250 <boss_take_action+0x9c>
     1f8:	00052783          	lw	a5,0(a0)
     1fc:	00a78793          	addi	a5,a5,10
     200:	00f52023          	sw	a5,0(a0)
     204:	00052783          	lw	a5,0(a0)
     208:	0407c063          	bltz	a5,248 <boss_take_action+0x94>
     20c:	00002537          	lui	a0,0x2
     210:	0d050513          	addi	a0,a0,208 # 20d0 <SEGMENT_CODES+0x54>
     214:	130000ef          	jal	ra,344 <print>
     218:	00002537          	lui	a0,0x2
     21c:	10050513          	addi	a0,a0,256 # 2100 <SEGMENT_CODES+0x84>
     220:	124000ef          	jal	ra,344 <print>
     224:	00042503          	lw	a0,0(s0)
     228:	14c000ef          	jal	ra,374 <print_int>
     22c:	00812403          	lw	s0,8(sp)
     230:	00c12083          	lw	ra,12(sp)
     234:	00412483          	lw	s1,4(sp)
     238:	00002537          	lui	a0,0x2
     23c:	44050513          	addi	a0,a0,1088 # 2440 <SEGMENT_CODES+0x3c4>
     240:	01010113          	addi	sp,sp,16
     244:	1000006f          	j	344 <print>
     248:	00052023          	sw	zero,0(a0)
     24c:	fc1ff06f          	j	20c <boss_take_action+0x58>
     250:	00452403          	lw	s0,4(a0)
     254:	0085a783          	lw	a5,8(a1)
     258:	00058493          	mv	s1,a1
     25c:	40f40433          	sub	s0,s0,a5
     260:	00804463          	bgtz	s0,268 <boss_take_action+0xb4>
     264:	00100413          	li	s0,1
     268:	408005b3          	neg	a1,s0
     26c:	00048513          	mv	a0,s1
     270:	571000ef          	jal	ra,fe0 <change_player_life>
     274:	00002537          	lui	a0,0x2
     278:	0a450513          	addi	a0,a0,164 # 20a4 <SEGMENT_CODES+0x28>
     27c:	0c8000ef          	jal	ra,344 <print>
     280:	00040513          	mv	a0,s0
     284:	0f0000ef          	jal	ra,374 <print_int>
     288:	00002537          	lui	a0,0x2
     28c:	0b850513          	addi	a0,a0,184 # 20b8 <SEGMENT_CODES+0x3c>
     290:	0b4000ef          	jal	ra,344 <print>
     294:	00002537          	lui	a0,0x2
     298:	0c450513          	addi	a0,a0,196 # 20c4 <SEGMENT_CODES+0x48>
     29c:	0a8000ef          	jal	ra,344 <print>
     2a0:	0004a503          	lw	a0,0(s1)
     2a4:	f85ff06f          	j	228 <boss_take_action+0x74>

000002a8 <change_boss_life>:
     2a8:	00052783          	lw	a5,0(a0)
     2ac:	00b787b3          	add	a5,a5,a1
     2b0:	00f52023          	sw	a5,0(a0)
     2b4:	00052783          	lw	a5,0(a0)
     2b8:	0007c463          	bltz	a5,2c0 <change_boss_life+0x18>
     2bc:	00008067          	ret
     2c0:	00052023          	sw	zero,0(a0)
     2c4:	00008067          	ret

000002c8 <change_current_room>:
     2c8:	00c52783          	lw	a5,12(a0)
     2cc:	0007a703          	lw	a4,0(a5)
     2d0:	0105a683          	lw	a3,16(a1)
     2d4:	0105a783          	lw	a5,16(a1)
     2d8:	00c52603          	lw	a2,12(a0)
     2dc:	0006a683          	lw	a3,0(a3)
     2e0:	0007a783          	lw	a5,0(a5)
     2e4:	00062603          	lw	a2,0(a2)
     2e8:	40d70733          	sub	a4,a4,a3
     2ec:	00970713          	addi	a4,a4,9
     2f0:	40c787b3          	sub	a5,a5,a2
     2f4:	00900693          	li	a3,9
     2f8:	00978793          	addi	a5,a5,9
     2fc:	02d76733          	rem	a4,a4,a3
     300:	02d7e7b3          	rem	a5,a5,a3
     304:	00e7ca63          	blt	a5,a4,318 <change_current_room+0x50>
     308:	00c52783          	lw	a5,12(a0)
     30c:	0107a783          	lw	a5,16(a5)
     310:	00f52623          	sw	a5,12(a0)
     314:	00008067          	ret
     318:	00c52783          	lw	a5,12(a0)
     31c:	00c7a783          	lw	a5,12(a5)
     320:	00f52623          	sw	a5,12(a0)
     324:	00008067          	ret

00000328 <printc>:
     328:	04000737          	lui	a4,0x4000
     32c:	ffff06b7          	lui	a3,0xffff0
     330:	04472783          	lw	a5,68(a4) # 4000044 <_stack_end+0x3efd03c>
     334:	00d7f7b3          	and	a5,a5,a3
     338:	fe078ce3          	beqz	a5,330 <printc+0x8>
     33c:	04a72023          	sw	a0,64(a4)
     340:	00008067          	ret

00000344 <print>:
     344:	00054603          	lbu	a2,0(a0)
     348:	02060463          	beqz	a2,370 <print+0x2c>
     34c:	04000737          	lui	a4,0x4000
     350:	ffff06b7          	lui	a3,0xffff0
     354:	04472783          	lw	a5,68(a4) # 4000044 <_stack_end+0x3efd03c>
     358:	00d7f7b3          	and	a5,a5,a3
     35c:	fe078ce3          	beqz	a5,354 <print+0x10>
     360:	04c72023          	sw	a2,64(a4)
     364:	00154603          	lbu	a2,1(a0)
     368:	00150513          	addi	a0,a0,1
     36c:	fe0614e3          	bnez	a2,354 <print+0x10>
     370:	00008067          	ret

00000374 <print_int>:
     374:	fe010113          	addi	sp,sp,-32
     378:	04051063          	bnez	a0,3b8 <print_int+0x44>
     37c:	03000793          	li	a5,48
     380:	00f11423          	sh	a5,8(sp)
     384:	03000613          	li	a2,48
     388:	00810593          	addi	a1,sp,8
     38c:	04000737          	lui	a4,0x4000
     390:	ffff06b7          	lui	a3,0xffff0
     394:	04472783          	lw	a5,68(a4) # 4000044 <_stack_end+0x3efd03c>
     398:	00d7f7b3          	and	a5,a5,a3
     39c:	fe078ce3          	beqz	a5,394 <print_int+0x20>
     3a0:	04c72023          	sw	a2,64(a4)
     3a4:	0015c603          	lbu	a2,1(a1)
     3a8:	00158593          	addi	a1,a1,1
     3ac:	fe0614e3          	bnez	a2,394 <print_int+0x20>
     3b0:	02010113          	addi	sp,sp,32
     3b4:	00008067          	ret
     3b8:	1a054663          	bltz	a0,564 <print_int+0x1f0>
     3bc:	00a00613          	li	a2,10
     3c0:	02c56733          	rem	a4,a0,a2
     3c4:	02c54533          	div	a0,a0,a2
     3c8:	03070713          	addi	a4,a4,48
     3cc:	0ff77713          	zext.b	a4,a4
     3d0:	00e10a23          	sb	a4,20(sp)
     3d4:	1a050a63          	beqz	a0,588 <print_int+0x214>
     3d8:	02c567b3          	rem	a5,a0,a2
     3dc:	02c54533          	div	a0,a0,a2
     3e0:	03078793          	addi	a5,a5,48
     3e4:	00f10aa3          	sb	a5,21(sp)
     3e8:	1a050863          	beqz	a0,598 <print_int+0x224>
     3ec:	02c567b3          	rem	a5,a0,a2
     3f0:	02c54533          	div	a0,a0,a2
     3f4:	03078793          	addi	a5,a5,48
     3f8:	00f10b23          	sb	a5,22(sp)
     3fc:	1c050c63          	beqz	a0,5d4 <print_int+0x260>
     400:	02c567b3          	rem	a5,a0,a2
     404:	02c54533          	div	a0,a0,a2
     408:	03078793          	addi	a5,a5,48
     40c:	00f10ba3          	sb	a5,23(sp)
     410:	1a050e63          	beqz	a0,5cc <print_int+0x258>
     414:	02c567b3          	rem	a5,a0,a2
     418:	02c54533          	div	a0,a0,a2
     41c:	03078793          	addi	a5,a5,48
     420:	00f10c23          	sb	a5,24(sp)
     424:	1a050c63          	beqz	a0,5dc <print_int+0x268>
     428:	02c567b3          	rem	a5,a0,a2
     42c:	02c54533          	div	a0,a0,a2
     430:	03078793          	addi	a5,a5,48
     434:	00f10ca3          	sb	a5,25(sp)
     438:	1a050663          	beqz	a0,5e4 <print_int+0x270>
     43c:	02c567b3          	rem	a5,a0,a2
     440:	02c54533          	div	a0,a0,a2
     444:	03078793          	addi	a5,a5,48
     448:	00f10d23          	sb	a5,26(sp)
     44c:	16050c63          	beqz	a0,5c4 <print_int+0x250>
     450:	02c567b3          	rem	a5,a0,a2
     454:	02c54533          	div	a0,a0,a2
     458:	03078793          	addi	a5,a5,48
     45c:	00f10da3          	sb	a5,27(sp)
     460:	18050a63          	beqz	a0,5f4 <print_int+0x280>
     464:	02c567b3          	rem	a5,a0,a2
     468:	02c54633          	div	a2,a0,a2
     46c:	03078793          	addi	a5,a5,48
     470:	00f10e23          	sb	a5,28(sp)
     474:	16060c63          	beqz	a2,5ec <print_int+0x278>
     478:	03060613          	addi	a2,a2,48
     47c:	00c10ea3          	sb	a2,29(sp)
     480:	01c15683          	lhu	a3,28(sp)
     484:	0ff67613          	zext.b	a2,a2
     488:	00800793          	li	a5,8
     48c:	01069593          	slli	a1,a3,0x10
     490:	0105d593          	srli	a1,a1,0x10
     494:	00869693          	slli	a3,a3,0x8
     498:	0085d593          	srli	a1,a1,0x8
     49c:	00b6e6b3          	or	a3,a3,a1
     4a0:	00d11423          	sh	a3,8(sp)
     4a4:	02a10693          	addi	a3,sp,42
     4a8:	fff78593          	addi	a1,a5,-1
     4ac:	02010513          	addi	a0,sp,32
     4b0:	00b50533          	add	a0,a0,a1
     4b4:	ff454503          	lbu	a0,-12(a0)
     4b8:	00a10523          	sb	a0,10(sp)
     4bc:	08058c63          	beqz	a1,554 <print_int+0x1e0>
     4c0:	ffe78593          	addi	a1,a5,-2
     4c4:	02010513          	addi	a0,sp,32
     4c8:	00b50533          	add	a0,a0,a1
     4cc:	ff454503          	lbu	a0,-12(a0)
     4d0:	00a105a3          	sb	a0,11(sp)
     4d4:	08058063          	beqz	a1,554 <print_int+0x1e0>
     4d8:	ffd78593          	addi	a1,a5,-3
     4dc:	02010513          	addi	a0,sp,32
     4e0:	00b50533          	add	a0,a0,a1
     4e4:	ff454503          	lbu	a0,-12(a0)
     4e8:	00a10623          	sb	a0,12(sp)
     4ec:	06058463          	beqz	a1,554 <print_int+0x1e0>
     4f0:	ffc78593          	addi	a1,a5,-4
     4f4:	02010513          	addi	a0,sp,32
     4f8:	00b50533          	add	a0,a0,a1
     4fc:	ff454503          	lbu	a0,-12(a0)
     500:	00a106a3          	sb	a0,13(sp)
     504:	04058863          	beqz	a1,554 <print_int+0x1e0>
     508:	ffb78593          	addi	a1,a5,-5
     50c:	02010513          	addi	a0,sp,32
     510:	00b50533          	add	a0,a0,a1
     514:	ff454503          	lbu	a0,-12(a0)
     518:	00a10723          	sb	a0,14(sp)
     51c:	02058c63          	beqz	a1,554 <print_int+0x1e0>
     520:	ffa78593          	addi	a1,a5,-6
     524:	02010513          	addi	a0,sp,32
     528:	00b50533          	add	a0,a0,a1
     52c:	ff454503          	lbu	a0,-12(a0)
     530:	00a107a3          	sb	a0,15(sp)
     534:	02058063          	beqz	a1,554 <print_int+0x1e0>
     538:	ff978793          	addi	a5,a5,-7
     53c:	02010593          	addi	a1,sp,32
     540:	00f585b3          	add	a1,a1,a5
     544:	ff45c583          	lbu	a1,-12(a1)
     548:	00b10823          	sb	a1,16(sp)
     54c:	00078463          	beqz	a5,554 <print_int+0x1e0>
     550:	00e108a3          	sb	a4,17(sp)
     554:	fe068423          	sb	zero,-24(a3) # fffeffe8 <_stack_end+0xffeecfe0>
     558:	e20618e3          	bnez	a2,388 <print_int+0x14>
     55c:	02010113          	addi	sp,sp,32
     560:	00008067          	ret
     564:	04000737          	lui	a4,0x4000
     568:	ffff06b7          	lui	a3,0xffff0
     56c:	04472783          	lw	a5,68(a4) # 4000044 <_stack_end+0x3efd03c>
     570:	00d7f7b3          	and	a5,a5,a3
     574:	fe078ce3          	beqz	a5,56c <print_int+0x1f8>
     578:	02d00793          	li	a5,45
     57c:	04f72023          	sw	a5,64(a4)
     580:	40a00533          	neg	a0,a0
     584:	e39ff06f          	j	3bc <print_int+0x48>
     588:	01414603          	lbu	a2,20(sp)
     58c:	02110693          	addi	a3,sp,33
     590:	00c10423          	sb	a2,8(sp)
     594:	fc1ff06f          	j	554 <print_int+0x1e0>
     598:	00200693          	li	a3,2
     59c:	02010613          	addi	a2,sp,32
     5a0:	ffe68793          	addi	a5,a3,-2 # fffefffe <_stack_end+0xffeecff6>
     5a4:	00f605b3          	add	a1,a2,a5
     5a8:	00d606b3          	add	a3,a2,a3
     5ac:	ff36c603          	lbu	a2,-13(a3)
     5b0:	ff45c583          	lbu	a1,-12(a1)
     5b4:	00c10423          	sb	a2,8(sp)
     5b8:	00b104a3          	sb	a1,9(sp)
     5bc:	ee0796e3          	bnez	a5,4a8 <print_int+0x134>
     5c0:	f95ff06f          	j	554 <print_int+0x1e0>
     5c4:	00700693          	li	a3,7
     5c8:	fd5ff06f          	j	59c <print_int+0x228>
     5cc:	00400693          	li	a3,4
     5d0:	fcdff06f          	j	59c <print_int+0x228>
     5d4:	00300693          	li	a3,3
     5d8:	fc5ff06f          	j	59c <print_int+0x228>
     5dc:	00500693          	li	a3,5
     5e0:	fbdff06f          	j	59c <print_int+0x228>
     5e4:	00600693          	li	a3,6
     5e8:	fb5ff06f          	j	59c <print_int+0x228>
     5ec:	00900693          	li	a3,9
     5f0:	fadff06f          	j	59c <print_int+0x228>
     5f4:	00800693          	li	a3,8
     5f8:	fa5ff06f          	j	59c <print_int+0x228>

000005fc <print_dec>:
     5fc:	3b9ad6b7          	lui	a3,0x3b9ad
     600:	00a00593          	li	a1,10
     604:	00000793          	li	a5,0
     608:	a0068693          	addi	a3,a3,-1536 # 3b9aca00 <_stack_end+0x3b8a99f8>
     60c:	04000737          	lui	a4,0x4000
     610:	ffff0637          	lui	a2,0xffff0
     614:	00a00893          	li	a7,10
     618:	02d57e63          	bgeu	a0,a3,654 <print_dec+0x58>
     61c:	02079c63          	bnez	a5,654 <print_dec+0x58>
     620:	fff58593          	addi	a1,a1,-1
     624:	02d57533          	remu	a0,a0,a3
     628:	0316d6b3          	divu	a3,a3,a7
     62c:	fe0596e3          	bnez	a1,618 <print_dec+0x1c>
     630:	02079063          	bnez	a5,650 <print_dec+0x54>
     634:	04000737          	lui	a4,0x4000
     638:	ffff06b7          	lui	a3,0xffff0
     63c:	04472783          	lw	a5,68(a4) # 4000044 <_stack_end+0x3efd03c>
     640:	00d7f7b3          	and	a5,a5,a3
     644:	fe078ce3          	beqz	a5,63c <print_dec+0x40>
     648:	03000793          	li	a5,48
     64c:	04f72023          	sw	a5,64(a4)
     650:	00008067          	ret
     654:	02d55833          	divu	a6,a0,a3
     658:	03080813          	addi	a6,a6,48
     65c:	0ff87813          	zext.b	a6,a6
     660:	04472783          	lw	a5,68(a4)
     664:	00c7f7b3          	and	a5,a5,a2
     668:	fe078ce3          	beqz	a5,660 <print_dec+0x64>
     66c:	05072023          	sw	a6,64(a4)
     670:	00100793          	li	a5,1
     674:	fadff06f          	j	620 <print_dec+0x24>

00000678 <print_hex32>:
     678:	04000737          	lui	a4,0x4000
     67c:	ffff06b7          	lui	a3,0xffff0
     680:	04472783          	lw	a5,68(a4) # 4000044 <_stack_end+0x3efd03c>
     684:	00d7f7b3          	and	a5,a5,a3
     688:	fe078ce3          	beqz	a5,680 <print_hex32+0x8>
     68c:	03000793          	li	a5,48
     690:	04f72023          	sw	a5,64(a4)
     694:	ffff06b7          	lui	a3,0xffff0
     698:	04000737          	lui	a4,0x4000
     69c:	04472783          	lw	a5,68(a4) # 4000044 <_stack_end+0x3efd03c>
     6a0:	00d7f7b3          	and	a5,a5,a3
     6a4:	fe078ce3          	beqz	a5,69c <print_hex32+0x24>
     6a8:	07800793          	li	a5,120
     6ac:	04f72023          	sw	a5,64(a4)
     6b0:	01c00613          	li	a2,28
     6b4:	00900893          	li	a7,9
     6b8:	04000737          	lui	a4,0x4000
     6bc:	ffff06b7          	lui	a3,0xffff0
     6c0:	ffc00813          	li	a6,-4
     6c4:	00c557b3          	srl	a5,a0,a2
     6c8:	00f7f793          	andi	a5,a5,15
     6cc:	03778593          	addi	a1,a5,55
     6d0:	00f8e463          	bltu	a7,a5,6d8 <print_hex32+0x60>
     6d4:	03078593          	addi	a1,a5,48
     6d8:	04472783          	lw	a5,68(a4) # 4000044 <_stack_end+0x3efd03c>
     6dc:	00d7f7b3          	and	a5,a5,a3
     6e0:	fe078ce3          	beqz	a5,6d8 <print_hex32+0x60>
     6e4:	04b72023          	sw	a1,64(a4)
     6e8:	ffc60613          	addi	a2,a2,-4 # fffefffc <_stack_end+0xffeecff4>
     6ec:	fd061ce3          	bne	a2,a6,6c4 <print_hex32+0x4c>
     6f0:	00008067          	ret

000006f4 <handle_exception>:
     6f4:	00200793          	li	a5,2
     6f8:	16f80463          	beq	a6,a5,860 <__heap_size+0x60>
     6fc:	00b00793          	li	a5,11
     700:	12f80a63          	beq	a6,a5,834 <__heap_size+0x34>
     704:	0e080e63          	beqz	a6,800 <__heap_size>
     708:	00002637          	lui	a2,0x2
     70c:	16060613          	addi	a2,a2,352 # 2160 <SEGMENT_CODES+0xe4>
     710:	00a00593          	li	a1,10
     714:	04000737          	lui	a4,0x4000
     718:	ffff06b7          	lui	a3,0xffff0
     71c:	04472783          	lw	a5,68(a4) # 4000044 <_stack_end+0x3efd03c>
     720:	00d7f7b3          	and	a5,a5,a3
     724:	fe078ce3          	beqz	a5,71c <handle_exception+0x28>
     728:	04b72023          	sw	a1,64(a4)
     72c:	00164583          	lbu	a1,1(a2)
     730:	00160613          	addi	a2,a2,1
     734:	fe0594e3          	bnez	a1,71c <handle_exception+0x28>
     738:	00002637          	lui	a2,0x2
     73c:	18060613          	addi	a2,a2,384 # 2180 <SEGMENT_CODES+0x104>
     740:	04500593          	li	a1,69
     744:	04000737          	lui	a4,0x4000
     748:	ffff06b7          	lui	a3,0xffff0
     74c:	04472783          	lw	a5,68(a4) # 4000044 <_stack_end+0x3efd03c>
     750:	00d7f7b3          	and	a5,a5,a3
     754:	fe078ce3          	beqz	a5,74c <handle_exception+0x58>
     758:	04b72023          	sw	a1,64(a4)
     75c:	00164583          	lbu	a1,1(a2)
     760:	00160613          	addi	a2,a2,1
     764:	fe0594e3          	bnez	a1,74c <handle_exception+0x58>
     768:	04000737          	lui	a4,0x4000
     76c:	ffff06b7          	lui	a3,0xffff0
     770:	04472783          	lw	a5,68(a4) # 4000044 <_stack_end+0x3efd03c>
     774:	00d7f7b3          	and	a5,a5,a3
     778:	fe078ce3          	beqz	a5,770 <handle_exception+0x7c>
     77c:	03000793          	li	a5,48
     780:	04f72023          	sw	a5,64(a4)
     784:	ffff06b7          	lui	a3,0xffff0
     788:	04000737          	lui	a4,0x4000
     78c:	04472783          	lw	a5,68(a4) # 4000044 <_stack_end+0x3efd03c>
     790:	00d7f7b3          	and	a5,a5,a3
     794:	fe078ce3          	beqz	a5,78c <handle_exception+0x98>
     798:	07800793          	li	a5,120
     79c:	04f72023          	sw	a5,64(a4)
     7a0:	01c00613          	li	a2,28
     7a4:	00900893          	li	a7,9
     7a8:	04000737          	lui	a4,0x4000
     7ac:	ffff06b7          	lui	a3,0xffff0
     7b0:	ffc00813          	li	a6,-4
     7b4:	00c557b3          	srl	a5,a0,a2
     7b8:	00f7f793          	andi	a5,a5,15
     7bc:	03778593          	addi	a1,a5,55
     7c0:	00f8e463          	bltu	a7,a5,7c8 <handle_exception+0xd4>
     7c4:	03078593          	addi	a1,a5,48
     7c8:	04472783          	lw	a5,68(a4) # 4000044 <_stack_end+0x3efd03c>
     7cc:	00d7f7b3          	and	a5,a5,a3
     7d0:	fe078ce3          	beqz	a5,7c8 <handle_exception+0xd4>
     7d4:	04b72023          	sw	a1,64(a4)
     7d8:	ffc60613          	addi	a2,a2,-4
     7dc:	fd061ce3          	bne	a2,a6,7b4 <handle_exception+0xc0>
     7e0:	04000737          	lui	a4,0x4000
     7e4:	ffff06b7          	lui	a3,0xffff0
     7e8:	04472783          	lw	a5,68(a4) # 4000044 <_stack_end+0x3efd03c>
     7ec:	00d7f7b3          	and	a5,a5,a3
     7f0:	fe078ce3          	beqz	a5,7e8 <handle_exception+0xf4>
     7f4:	00a00793          	li	a5,10
     7f8:	04f72023          	sw	a5,64(a4)
     7fc:	0000006f          	j	7fc <handle_exception+0x108>
     800:	00002637          	lui	a2,0x2
     804:	10c60613          	addi	a2,a2,268 # 210c <SEGMENT_CODES+0x90>
     808:	00a00593          	li	a1,10
     80c:	04000737          	lui	a4,0x4000
     810:	ffff06b7          	lui	a3,0xffff0
     814:	04472783          	lw	a5,68(a4) # 4000044 <_stack_end+0x3efd03c>
     818:	00d7f7b3          	and	a5,a5,a3
     81c:	fe078ce3          	beqz	a5,814 <__heap_size+0x14>
     820:	04b72023          	sw	a1,64(a4)
     824:	00164583          	lbu	a1,1(a2)
     828:	00160613          	addi	a2,a2,1
     82c:	fe0594e3          	bnez	a1,814 <__heap_size+0x14>
     830:	f09ff06f          	j	738 <handle_exception+0x44>
     834:	00400793          	li	a5,4
     838:	04f88e63          	beq	a7,a5,894 <__heap_size+0x94>
     83c:	09089463          	bne	a7,a6,8c4 <__heap_size+0xc4>
     840:	04000737          	lui	a4,0x4000
     844:	ffff06b7          	lui	a3,0xffff0
     848:	04472783          	lw	a5,68(a4) # 4000044 <_stack_end+0x3efd03c>
     84c:	00d7f7b3          	and	a5,a5,a3
     850:	fe078ce3          	beqz	a5,848 <__heap_size+0x48>
     854:	0ff57513          	zext.b	a0,a0
     858:	04a72023          	sw	a0,64(a4)
     85c:	00008067          	ret
     860:	00002637          	lui	a2,0x2
     864:	13c60613          	addi	a2,a2,316 # 213c <SEGMENT_CODES+0xc0>
     868:	00a00593          	li	a1,10
     86c:	04000737          	lui	a4,0x4000
     870:	ffff06b7          	lui	a3,0xffff0
     874:	04472783          	lw	a5,68(a4) # 4000044 <_stack_end+0x3efd03c>
     878:	00d7f7b3          	and	a5,a5,a3
     87c:	fe078ce3          	beqz	a5,874 <__heap_size+0x74>
     880:	04b72023          	sw	a1,64(a4)
     884:	00164583          	lbu	a1,1(a2)
     888:	00160613          	addi	a2,a2,1
     88c:	fe0594e3          	bnez	a1,874 <__heap_size+0x74>
     890:	ea9ff06f          	j	738 <handle_exception+0x44>
     894:	00054603          	lbu	a2,0(a0)
     898:	02060663          	beqz	a2,8c4 <__heap_size+0xc4>
     89c:	04000737          	lui	a4,0x4000
     8a0:	ffff06b7          	lui	a3,0xffff0
     8a4:	04472783          	lw	a5,68(a4) # 4000044 <_stack_end+0x3efd03c>
     8a8:	00d7f7b3          	and	a5,a5,a3
     8ac:	fe078ce3          	beqz	a5,8a4 <__heap_size+0xa4>
     8b0:	04c72023          	sw	a2,64(a4)
     8b4:	00154603          	lbu	a2,1(a0)
     8b8:	00150513          	addi	a0,a0,1
     8bc:	fe0614e3          	bnez	a2,8a4 <__heap_size+0xa4>
     8c0:	00008067          	ret
     8c4:	00008067          	ret

000008c8 <nextprime>:
     8c8:	00200713          	li	a4,2
     8cc:	00050793          	mv	a5,a0
     8d0:	02a74063          	blt	a4,a0,8f0 <nextprime+0x28>
     8d4:	00100513          	li	a0,1
     8d8:	00f05a63          	blez	a5,8ec <nextprime+0x24>
     8dc:	fff78513          	addi	a0,a5,-1
     8e0:	00a03533          	snez	a0,a0
     8e4:	00250513          	addi	a0,a0,2
     8e8:	00008067          	ret
     8ec:	00008067          	ret
     8f0:	00150793          	addi	a5,a0,1
     8f4:	0017e513          	ori	a0,a5,1
     8f8:	00300613          	li	a2,3
     8fc:	02c567b3          	rem	a5,a0,a2
     900:	40155693          	srai	a3,a0,0x1
     904:	02078263          	beqz	a5,928 <nextprime+0x60>
     908:	00268693          	addi	a3,a3,2 # ffff0002 <_stack_end+0xffeecffa>
     90c:	00300793          	li	a5,3
     910:	00c0006f          	j	91c <nextprime+0x54>
     914:	02f56733          	rem	a4,a0,a5
     918:	00070863          	beqz	a4,928 <nextprime+0x60>
     91c:	00178793          	addi	a5,a5,1
     920:	fef69ae3          	bne	a3,a5,914 <nextprime+0x4c>
     924:	00008067          	ret
     928:	00250513          	addi	a0,a0,2
     92c:	fd1ff06f          	j	8fc <nextprime+0x34>

00000930 <get_switches>:
     930:	040007b7          	lui	a5,0x4000
     934:	0107a503          	lw	a0,16(a5) # 4000010 <_stack_end+0x3efd008>
     938:	00f57513          	andi	a0,a0,15
     93c:	00008067          	ret

00000940 <move_next>:
     940:	01052783          	lw	a5,16(a0)
     944:	00c7a783          	lw	a5,12(a5)
     948:	00f52823          	sw	a5,16(a0)
     94c:	00008067          	ret

00000950 <move_previous>:
     950:	01052783          	lw	a5,16(a0)
     954:	0107a783          	lw	a5,16(a5)
     958:	00f52823          	sw	a5,16(a0)
     95c:	00008067          	ret

00000960 <print_meny>:
     960:	ff010113          	addi	sp,sp,-16
     964:	00812423          	sw	s0,8(sp)
     968:	00050413          	mv	s0,a0
     96c:	00002537          	lui	a0,0x2
     970:	19450513          	addi	a0,a0,404 # 2194 <SEGMENT_CODES+0x118>
     974:	00112623          	sw	ra,12(sp)
     978:	9cdff0ef          	jal	ra,344 <print>
     97c:	00040513          	mv	a0,s0
     980:	2a8010ef          	jal	ra,1c28 <print_room_info>
     984:	00002537          	lui	a0,0x2
     988:	1d850513          	addi	a0,a0,472 # 21d8 <SEGMENT_CODES+0x15c>
     98c:	9b9ff0ef          	jal	ra,344 <print>
     990:	00002537          	lui	a0,0x2
     994:	1e850513          	addi	a0,a0,488 # 21e8 <SEGMENT_CODES+0x16c>
     998:	9adff0ef          	jal	ra,344 <print>
     99c:	00002537          	lui	a0,0x2
     9a0:	1fc50513          	addi	a0,a0,508 # 21fc <SEGMENT_CODES+0x180>
     9a4:	9a1ff0ef          	jal	ra,344 <print>
     9a8:	00812403          	lw	s0,8(sp)
     9ac:	00c12083          	lw	ra,12(sp)
     9b0:	00002537          	lui	a0,0x2
     9b4:	21050513          	addi	a0,a0,528 # 2210 <SEGMENT_CODES+0x194>
     9b8:	01010113          	addi	sp,sp,16
     9bc:	989ff06f          	j	344 <print>

000009c0 <battle_step>:
     9c0:	ff010113          	addi	sp,sp,-16
     9c4:	00812423          	sw	s0,8(sp)
     9c8:	00050413          	mv	s0,a0
     9cc:	00002537          	lui	a0,0x2
     9d0:	19450513          	addi	a0,a0,404 # 2194 <SEGMENT_CODES+0x118>
     9d4:	00112623          	sw	ra,12(sp)
     9d8:	00912223          	sw	s1,4(sp)
     9dc:	969ff0ef          	jal	ra,344 <print>
     9e0:	00002537          	lui	a0,0x2
     9e4:	22450513          	addi	a0,a0,548 # 2224 <SEGMENT_CODES+0x1a8>
     9e8:	95dff0ef          	jal	ra,344 <print>
     9ec:	00002537          	lui	a0,0x2
     9f0:	23c50513          	addi	a0,a0,572 # 223c <SEGMENT_CODES+0x1c0>
     9f4:	951ff0ef          	jal	ra,344 <print>
     9f8:	03442783          	lw	a5,52(s0)
     9fc:	fe078ee3          	beqz	a5,9f8 <battle_step+0x38>
     a00:	02042a23          	sw	zero,52(s0)
     a04:	040007b7          	lui	a5,0x4000
     a08:	0107a783          	lw	a5,16(a5) # 4000010 <_stack_end+0x3efd008>
     a0c:	00100713          	li	a4,1
     a10:	00f7f793          	andi	a5,a5,15
     a14:	0ae78e63          	beq	a5,a4,ad0 <battle_step+0x110>
     a18:	00200713          	li	a4,2
     a1c:	10e78463          	beq	a5,a4,b24 <battle_step+0x164>
     a20:	00002537          	lui	a0,0x2
     a24:	2c850513          	addi	a0,a0,712 # 22c8 <SEGMENT_CODES+0x24c>
     a28:	91dff0ef          	jal	ra,344 <print>
     a2c:	02042783          	lw	a5,32(s0)
     a30:	00f05663          	blez	a5,a3c <battle_step+0x7c>
     a34:	00c42783          	lw	a5,12(s0)
     a38:	02f04463          	bgtz	a5,a60 <battle_step+0xa0>
     a3c:	02042783          	lw	a5,32(s0)
     a40:	04f05063          	blez	a5,a80 <battle_step+0xc0>
     a44:	00c42783          	lw	a5,12(s0)
     a48:	04f05c63          	blez	a5,aa0 <battle_step+0xe0>
     a4c:	00c12083          	lw	ra,12(sp)
     a50:	00812403          	lw	s0,8(sp)
     a54:	00412483          	lw	s1,4(sp)
     a58:	01010113          	addi	sp,sp,16
     a5c:	00008067          	ret
     a60:	00002537          	lui	a0,0x2
     a64:	2dc50513          	addi	a0,a0,732 # 22dc <SEGMENT_CODES+0x260>
     a68:	8ddff0ef          	jal	ra,344 <print>
     a6c:	00c40593          	addi	a1,s0,12
     a70:	02040513          	addi	a0,s0,32
     a74:	f40ff0ef          	jal	ra,1b4 <boss_take_action>
     a78:	02042783          	lw	a5,32(s0)
     a7c:	fcf044e3          	bgtz	a5,a44 <battle_step+0x84>
     a80:	00002537          	lui	a0,0x2
     a84:	30850513          	addi	a0,a0,776 # 2308 <SEGMENT_CODES+0x28c>
     a88:	8bdff0ef          	jal	ra,344 <print>
     a8c:	00100793          	li	a5,1
     a90:	02042c23          	sw	zero,56(s0)
     a94:	02f42e23          	sw	a5,60(s0)
     a98:	00c42783          	lw	a5,12(s0)
     a9c:	faf048e3          	bgtz	a5,a4c <battle_step+0x8c>
     aa0:	00002537          	lui	a0,0x2
     aa4:	34850513          	addi	a0,a0,840 # 2348 <SEGMENT_CODES+0x2cc>
     aa8:	89dff0ef          	jal	ra,344 <print>
     aac:	00002537          	lui	a0,0x2
     ab0:	36450513          	addi	a0,a0,868 # 2364 <SEGMENT_CODES+0x2e8>
     ab4:	891ff0ef          	jal	ra,344 <print>
     ab8:	02042c23          	sw	zero,56(s0)
     abc:	00812403          	lw	s0,8(sp)
     ac0:	00c12083          	lw	ra,12(sp)
     ac4:	00412483          	lw	s1,4(sp)
     ac8:	01010113          	addi	sp,sp,16
     acc:	3300106f          	j	1dfc <stopTimer>
     ad0:	01042483          	lw	s1,16(s0)
     ad4:	02042783          	lw	a5,32(s0)
     ad8:	00002537          	lui	a0,0x2
     adc:	25850513          	addi	a0,a0,600 # 2258 <SEGMENT_CODES+0x1dc>
     ae0:	409787b3          	sub	a5,a5,s1
     ae4:	02f42023          	sw	a5,32(s0)
     ae8:	85dff0ef          	jal	ra,344 <print>
     aec:	00048513          	mv	a0,s1
     af0:	885ff0ef          	jal	ra,374 <print_int>
     af4:	00002537          	lui	a0,0x2
     af8:	27450513          	addi	a0,a0,628 # 2274 <SEGMENT_CODES+0x1f8>
     afc:	849ff0ef          	jal	ra,344 <print>
     b00:	00002537          	lui	a0,0x2
     b04:	10050513          	addi	a0,a0,256 # 2100 <SEGMENT_CODES+0x84>
     b08:	83dff0ef          	jal	ra,344 <print>
     b0c:	02042503          	lw	a0,32(s0)
     b10:	865ff0ef          	jal	ra,374 <print_int>
     b14:	00002537          	lui	a0,0x2
     b18:	44050513          	addi	a0,a0,1088 # 2440 <SEGMENT_CODES+0x3c4>
     b1c:	829ff0ef          	jal	ra,344 <print>
     b20:	f0dff06f          	j	a2c <battle_step+0x6c>
     b24:	00002537          	lui	a0,0x2
     b28:	28050513          	addi	a0,a0,640 # 2280 <SEGMENT_CODES+0x204>
     b2c:	819ff0ef          	jal	ra,344 <print>
     b30:	00002537          	lui	a0,0x2
     b34:	2bc50513          	addi	a0,a0,700 # 22bc <SEGMENT_CODES+0x240>
     b38:	80dff0ef          	jal	ra,344 <print>
     b3c:	01442783          	lw	a5,20(s0)
     b40:	00178793          	addi	a5,a5,1
     b44:	00f42a23          	sw	a5,20(s0)
     b48:	ee5ff06f          	j	a2c <battle_step+0x6c>

00000b4c <game_loop>:
     b4c:	fc010113          	addi	sp,sp,-64
     b50:	01b12623          	sw	s11,12(sp)
     b54:	02112e23          	sw	ra,60(sp)
     b58:	02812c23          	sw	s0,56(sp)
     b5c:	02912a23          	sw	s1,52(sp)
     b60:	03212823          	sw	s2,48(sp)
     b64:	03312623          	sw	s3,44(sp)
     b68:	03412423          	sw	s4,40(sp)
     b6c:	03512223          	sw	s5,36(sp)
     b70:	03612023          	sw	s6,32(sp)
     b74:	01712e23          	sw	s7,28(sp)
     b78:	01812c23          	sw	s8,24(sp)
     b7c:	01912a23          	sw	s9,20(sp)
     b80:	01a12823          	sw	s10,16(sp)
     b84:	04000737          	lui	a4,0x4000
     b88:	00100693          	li	a3,1
     b8c:	00050d93          	mv	s11,a0
     b90:	0cd72c23          	sw	a3,216(a4) # 40000d8 <_stack_end+0x3efd0d0>
     b94:	00c50513          	addi	a0,a0,12
     b98:	3fc000ef          	jal	ra,f94 <updatelife>
     b9c:	00002537          	lui	a0,0x2
     ba0:	39050513          	addi	a0,a0,912 # 2390 <SEGMENT_CODES+0x314>
     ba4:	fa0ff0ef          	jal	ra,344 <print>
     ba8:	034da703          	lw	a4,52(s11)
     bac:	fe070ee3          	beqz	a4,ba8 <game_loop+0x5c>
     bb0:	020daa23          	sw	zero,52(s11)
     bb4:	01cda403          	lw	s0,28(s11)
     bb8:	00002d37          	lui	s10,0x2
     bbc:	194d0513          	addi	a0,s10,404 # 2194 <SEGMENT_CODES+0x118>
     bc0:	f84ff0ef          	jal	ra,344 <print>
     bc4:	00040513          	mv	a0,s0
     bc8:	060010ef          	jal	ra,1c28 <print_room_info>
     bcc:	00002cb7          	lui	s9,0x2
     bd0:	1d8c8513          	addi	a0,s9,472 # 21d8 <SEGMENT_CODES+0x15c>
     bd4:	f70ff0ef          	jal	ra,344 <print>
     bd8:	00002c37          	lui	s8,0x2
     bdc:	1e8c0513          	addi	a0,s8,488 # 21e8 <SEGMENT_CODES+0x16c>
     be0:	f64ff0ef          	jal	ra,344 <print>
     be4:	00002bb7          	lui	s7,0x2
     be8:	1fcb8513          	addi	a0,s7,508 # 21fc <SEGMENT_CODES+0x180>
     bec:	f58ff0ef          	jal	ra,344 <print>
     bf0:	00002b37          	lui	s6,0x2
     bf4:	210b0513          	addi	a0,s6,528 # 2210 <SEGMENT_CODES+0x194>
     bf8:	f4cff0ef          	jal	ra,344 <print>
     bfc:	1dc010ef          	jal	ra,1dd8 <startTimer>
     c00:	01cda483          	lw	s1,28(s11)
     c04:	04000ab7          	lui	s5,0x4000
     c08:	00400413          	li	s0,4
     c0c:	00800a13          	li	s4,8
     c10:	00100913          	li	s2,1
     c14:	00200993          	li	s3,2
     c18:	034da703          	lw	a4,52(s11)
     c1c:	06070663          	beqz	a4,c88 <game_loop+0x13c>
     c20:	020daa23          	sw	zero,52(s11)
     c24:	010aa703          	lw	a4,16(s5) # 4000010 <_stack_end+0x3efd008>
     c28:	00f77713          	andi	a4,a4,15
     c2c:	12870263          	beq	a4,s0,d50 <game_loop+0x204>
     c30:	0ce44863          	blt	s0,a4,d00 <game_loop+0x1b4>
     c34:	11270663          	beq	a4,s2,d40 <game_loop+0x1f4>
     c38:	01371863          	bne	a4,s3,c48 <game_loop+0xfc>
     c3c:	01cda703          	lw	a4,28(s11)
     c40:	01072703          	lw	a4,16(a4)
     c44:	00edae23          	sw	a4,28(s11)
     c48:	01cda703          	lw	a4,28(s11)
     c4c:	02970e63          	beq	a4,s1,c88 <game_loop+0x13c>
     c50:	01cda483          	lw	s1,28(s11)
     c54:	194d0513          	addi	a0,s10,404
     c58:	eecff0ef          	jal	ra,344 <print>
     c5c:	00048513          	mv	a0,s1
     c60:	7c9000ef          	jal	ra,1c28 <print_room_info>
     c64:	1d8c8513          	addi	a0,s9,472
     c68:	edcff0ef          	jal	ra,344 <print>
     c6c:	1e8c0513          	addi	a0,s8,488
     c70:	ed4ff0ef          	jal	ra,344 <print>
     c74:	1fcb8513          	addi	a0,s7,508
     c78:	eccff0ef          	jal	ra,344 <print>
     c7c:	210b0513          	addi	a0,s6,528
     c80:	ec4ff0ef          	jal	ra,344 <print>
     c84:	01cda483          	lw	s1,28(s11)
     c88:	038da703          	lw	a4,56(s11)
     c8c:	00071863          	bnez	a4,c9c <game_loop+0x150>
     c90:	02cda683          	lw	a3,44(s11)
     c94:	01cda703          	lw	a4,28(s11)
     c98:	08e68663          	beq	a3,a4,d24 <game_loop+0x1d8>
     c9c:	038da703          	lw	a4,56(s11)
     ca0:	000d8513          	mv	a0,s11
     ca4:	06071663          	bnez	a4,d10 <game_loop+0x1c4>
     ca8:	160010ef          	jal	ra,1e08 <check_timer_done>
     cac:	f60506e3          	beqz	a0,c18 <game_loop+0xcc>
     cb0:	00002537          	lui	a0,0x2
     cb4:	3e050513          	addi	a0,a0,992 # 23e0 <SEGMENT_CODES+0x364>
     cb8:	e8cff0ef          	jal	ra,344 <print>
     cbc:	140010ef          	jal	ra,1dfc <stopTimer>
     cc0:	03c12083          	lw	ra,60(sp)
     cc4:	03812403          	lw	s0,56(sp)
     cc8:	03412483          	lw	s1,52(sp)
     ccc:	03012903          	lw	s2,48(sp)
     cd0:	02c12983          	lw	s3,44(sp)
     cd4:	02812a03          	lw	s4,40(sp)
     cd8:	02412a83          	lw	s5,36(sp)
     cdc:	02012b03          	lw	s6,32(sp)
     ce0:	01c12b83          	lw	s7,28(sp)
     ce4:	01812c03          	lw	s8,24(sp)
     ce8:	01412c83          	lw	s9,20(sp)
     cec:	01012d03          	lw	s10,16(sp)
     cf0:	00c12d83          	lw	s11,12(sp)
     cf4:	00000513          	li	a0,0
     cf8:	04010113          	addi	sp,sp,64
     cfc:	00008067          	ret
     d00:	f54714e3          	bne	a4,s4,c48 <game_loop+0xfc>
     d04:	01cda503          	lw	a0,28(s11)
     d08:	771000ef          	jal	ra,1c78 <inspect_room>
     d0c:	f3dff06f          	j	c48 <game_loop+0xfc>
     d10:	cb1ff0ef          	jal	ra,9c0 <battle_step>
     d14:	000d8513          	mv	a0,s11
     d18:	0f0010ef          	jal	ra,1e08 <check_timer_done>
     d1c:	ee050ee3          	beqz	a0,c18 <game_loop+0xcc>
     d20:	f91ff06f          	j	cb0 <game_loop+0x164>
     d24:	03cda703          	lw	a4,60(s11)
     d28:	f6071ae3          	bnez	a4,c9c <game_loop+0x150>
     d2c:	000027b7          	lui	a5,0x2
     d30:	3ac78513          	addi	a0,a5,940 # 23ac <SEGMENT_CODES+0x330>
     d34:	e10ff0ef          	jal	ra,344 <print>
     d38:	032dac23          	sw	s2,56(s11)
     d3c:	f61ff06f          	j	c9c <game_loop+0x150>
     d40:	01cda703          	lw	a4,28(s11)
     d44:	00c72703          	lw	a4,12(a4)
     d48:	00edae23          	sw	a4,28(s11)
     d4c:	efdff06f          	j	c48 <game_loop+0xfc>
     d50:	01cda583          	lw	a1,28(s11)
     d54:	000d8513          	mv	a0,s11
     d58:	0f1000ef          	jal	ra,1648 <solve_puzzle>
     d5c:	eedff06f          	j	c48 <game_loop+0xfc>

00000d60 <handle_interrupt>:
     d60:	01000793          	li	a5,16
     d64:	04f50263          	beq	a0,a5,da8 <handle_interrupt+0x48>
     d68:	01200793          	li	a5,18
     d6c:	02f51c63          	bne	a0,a5,da4 <handle_interrupt+0x44>
     d70:	000027b7          	lui	a5,0x2
     d74:	0247a703          	lw	a4,36(a5) # 2024 <debounce_counter>
     d78:	00071e63          	bnez	a4,d94 <handle_interrupt+0x34>
     d7c:	00002737          	lui	a4,0x2
     d80:	00500693          	li	a3,5
     d84:	02d7a223          	sw	a3,36(a5)
     d88:	eec70793          	addi	a5,a4,-276 # 1eec <state>
     d8c:	00100713          	li	a4,1
     d90:	02e7aa23          	sw	a4,52(a5)
     d94:	040007b7          	lui	a5,0x4000
     d98:	0dc7a703          	lw	a4,220(a5) # 40000dc <_stack_end+0x3efd0d4>
     d9c:	0ce7ae23          	sw	a4,220(a5)
     da0:	00008067          	ret
     da4:	00008067          	ret
     da8:	ff010113          	addi	sp,sp,-16
     dac:	00812423          	sw	s0,8(sp)
     db0:	040007b7          	lui	a5,0x4000
     db4:	00112623          	sw	ra,12(sp)
     db8:	00912223          	sw	s1,4(sp)
     dbc:	0207a023          	sw	zero,32(a5) # 4000020 <_stack_end+0x3efd018>
     dc0:	000026b7          	lui	a3,0x2
     dc4:	00002437          	lui	s0,0x2
     dc8:	0286a703          	lw	a4,40(a3) # 2028 <tick_count>
     dcc:	02042783          	lw	a5,32(s0) # 2020 <boss_timer>
     dd0:	00a00613          	li	a2,10
     dd4:	00170713          	addi	a4,a4,1
     dd8:	00178793          	addi	a5,a5,1
     ddc:	02e6a423          	sw	a4,40(a3)
     de0:	02f42023          	sw	a5,32(s0)
     de4:	0cc70463          	beq	a4,a2,eac <handle_interrupt+0x14c>
     de8:	000026b7          	lui	a3,0x2
     dec:	0246a703          	lw	a4,36(a3) # 2024 <debounce_counter>
     df0:	00e05663          	blez	a4,dfc <handle_interrupt+0x9c>
     df4:	fff70713          	addi	a4,a4,-1
     df8:	02e6a223          	sw	a4,36(a3)
     dfc:	06400713          	li	a4,100
     e00:	00e78c63          	beq	a5,a4,e18 <handle_interrupt+0xb8>
     e04:	00c12083          	lw	ra,12(sp)
     e08:	00812403          	lw	s0,8(sp)
     e0c:	00412483          	lw	s1,4(sp)
     e10:	01010113          	addi	sp,sp,16
     e14:	00008067          	ret
     e18:	000024b7          	lui	s1,0x2
     e1c:	eec48493          	addi	s1,s1,-276 # 1eec <state>
     e20:	0384a783          	lw	a5,56(s1)
     e24:	fe0790e3          	bnez	a5,e04 <handle_interrupt+0xa4>
     e28:	03c4a783          	lw	a5,60(s1)
     e2c:	fc079ce3          	bnez	a5,e04 <handle_interrupt+0xa4>
     e30:	000025b7          	lui	a1,0x2
     e34:	00002537          	lui	a0,0x2
     e38:	ef858593          	addi	a1,a1,-264 # 1ef8 <state+0xc>
     e3c:	f0c50513          	addi	a0,a0,-244 # 1f0c <state+0x20>
     e40:	02042023          	sw	zero,32(s0)
     e44:	c84ff0ef          	jal	ra,2c8 <change_current_room>
     e48:	01c4a783          	lw	a5,28(s1)
     e4c:	02c4a703          	lw	a4,44(s1)
     e50:	00900693          	li	a3,9
     e54:	0007a783          	lw	a5,0(a5)
     e58:	00072583          	lw	a1,0(a4)
     e5c:	02c4a703          	lw	a4,44(s1)
     e60:	00100613          	li	a2,1
     e64:	40b787b3          	sub	a5,a5,a1
     e68:	00978793          	addi	a5,a5,9
     e6c:	02d7e7b3          	rem	a5,a5,a3
     e70:	00072703          	lw	a4,0(a4)
     e74:	01c4a583          	lw	a1,28(s1)
     e78:	0005a583          	lw	a1,0(a1)
     e7c:	40b70733          	sub	a4,a4,a1
     e80:	00970713          	addi	a4,a4,9
     e84:	02d76733          	rem	a4,a4,a3
     e88:	00c78463          	beq	a5,a2,e90 <handle_interrupt+0x130>
     e8c:	f6c71ce3          	bne	a4,a2,e04 <handle_interrupt+0xa4>
     e90:	00812403          	lw	s0,8(sp)
     e94:	00c12083          	lw	ra,12(sp)
     e98:	00412483          	lw	s1,4(sp)
     e9c:	00002537          	lui	a0,0x2
     ea0:	3f850513          	addi	a0,a0,1016 # 23f8 <SEGMENT_CODES+0x37c>
     ea4:	01010113          	addi	sp,sp,16
     ea8:	c9cff06f          	j	344 <print>
     eac:	000024b7          	lui	s1,0x2
     eb0:	fff00593          	li	a1,-1
     eb4:	eec48513          	addi	a0,s1,-276 # 1eec <state>
     eb8:	0206a423          	sw	zero,40(a3)
     ebc:	6dd000ef          	jal	ra,1d98 <tick>
     ec0:	eec48713          	addi	a4,s1,-276
     ec4:	00872783          	lw	a5,8(a4)
     ec8:	eec48513          	addi	a0,s1,-276
     ecc:	00178793          	addi	a5,a5,1
     ed0:	00f72423          	sw	a5,8(a4)
     ed4:	641000ef          	jal	ra,1d14 <updateTimer>
     ed8:	02042783          	lw	a5,32(s0)
     edc:	f0dff06f          	j	de8 <handle_interrupt+0x88>

00000ee0 <main>:
     ee0:	fb010113          	addi	sp,sp,-80
     ee4:	04812423          	sw	s0,72(sp)
     ee8:	00002437          	lui	s0,0x2
     eec:	04112623          	sw	ra,76(sp)
     ef0:	eec40793          	addi	a5,s0,-276 # 1eec <state>
     ef4:	00500713          	li	a4,5
     ef8:	00e7a023          	sw	a4,0(a5)
     efc:	0007a223          	sw	zero,4(a5)
     f00:	0007a423          	sw	zero,8(a5)
     f04:	06400713          	li	a4,100
     f08:	00e7a623          	sw	a4,12(a5)
     f0c:	00a00713          	li	a4,10
     f10:	00e7a823          	sw	a4,16(a5)
     f14:	0007aa23          	sw	zero,20(a5)
     f18:	0007ac23          	sw	zero,24(a5)
     f1c:	0007ae23          	sw	zero,28(a5)
     f20:	07d00713          	li	a4,125
     f24:	02e12623          	sw	a4,44(sp)
     f28:	01900713          	li	a4,25
     f2c:	02e12823          	sw	a4,48(sp)
     f30:	02c12703          	lw	a4,44(sp)
     f34:	02e7a023          	sw	a4,32(a5)
     f38:	03012703          	lw	a4,48(sp)
     f3c:	02e7a223          	sw	a4,36(a5)
     f40:	0207a423          	sw	zero,40(a5)
     f44:	0207a623          	sw	zero,44(a5)
     f48:	00002737          	lui	a4,0x2
     f4c:	0207a823          	sw	zero,48(a5)
     f50:	f6c70713          	addi	a4,a4,-148 # 1f6c <room1>
     f54:	00e7ae23          	sw	a4,28(a5)
     f58:	00002737          	lui	a4,0x2
     f5c:	ff870713          	addi	a4,a4,-8 # 1ff8 <room7>
     f60:	02e7a623          	sw	a4,44(a5)
     f64:	0207aa23          	sw	zero,52(a5)
     f68:	0207ac23          	sw	zero,56(a5)
     f6c:	0207ae23          	sw	zero,60(a5)
     f70:	325000ef          	jal	ra,1a94 <create_rooms>
     f74:	a00ff0ef          	jal	ra,174 <enable_interrupt>
     f78:	eec40513          	addi	a0,s0,-276
     f7c:	bd1ff0ef          	jal	ra,b4c <game_loop>
     f80:	04c12083          	lw	ra,76(sp)
     f84:	04812403          	lw	s0,72(sp)
     f88:	00000513          	li	a0,0
     f8c:	05010113          	addi	sp,sp,80
     f90:	00008067          	ret

00000f94 <updatelife>:
     f94:	00052783          	lw	a5,0(a0)
     f98:	06d00693          	li	a3,109
     f9c:	3ff00713          	li	a4,1023
     fa0:	02f6c263          	blt	a3,a5,fc4 <updatelife+0x30>
     fa4:	00a00713          	li	a4,10
     fa8:	02e7c7b3          	div	a5,a5,a4
     fac:	fff7c713          	not	a4,a5
     fb0:	41f75713          	srai	a4,a4,0x1f
     fb4:	00e7f7b3          	and	a5,a5,a4
     fb8:	00100713          	li	a4,1
     fbc:	00f717b3          	sll	a5,a4,a5
     fc0:	fff78713          	addi	a4,a5,-1
     fc4:	040007b7          	lui	a5,0x4000
     fc8:	00e7a023          	sw	a4,0(a5) # 4000000 <_stack_end+0x3efcff8>
     fcc:	00008067          	ret

00000fd0 <player_attack>:
     fd0:	00452783          	lw	a5,4(a0)
     fd4:	00058513          	mv	a0,a1
     fd8:	40f005b3          	neg	a1,a5
     fdc:	accff06f          	j	2a8 <change_boss_life>

00000fe0 <change_player_life>:
     fe0:	00052783          	lw	a5,0(a0)
     fe4:	00b787b3          	add	a5,a5,a1
     fe8:	00f52023          	sw	a5,0(a0)
     fec:	00052783          	lw	a5,0(a0)
     ff0:	0007d463          	bgez	a5,ff8 <change_player_life+0x18>
     ff4:	00052023          	sw	zero,0(a0)
     ff8:	00052783          	lw	a5,0(a0)
     ffc:	06d00693          	li	a3,109
    1000:	3ff00713          	li	a4,1023
    1004:	02f6c263          	blt	a3,a5,1028 <change_player_life+0x48>
    1008:	00a00713          	li	a4,10
    100c:	02e7c7b3          	div	a5,a5,a4
    1010:	fff7c713          	not	a4,a5
    1014:	41f75713          	srai	a4,a4,0x1f
    1018:	00e7f7b3          	and	a5,a5,a4
    101c:	00100713          	li	a4,1
    1020:	00f717b3          	sll	a5,a4,a5
    1024:	fff78713          	addi	a4,a5,-1
    1028:	040007b7          	lui	a5,0x4000
    102c:	00e7a023          	sw	a4,0(a5) # 4000000 <_stack_end+0x3efcff8>
    1030:	00008067          	ret

00001034 <change_damage>:
    1034:	00452783          	lw	a5,4(a0)
    1038:	00b787b3          	add	a5,a5,a1
    103c:	00f52223          	sw	a5,4(a0)
    1040:	00008067          	ret

00001044 <change_protection>:
    1044:	00852783          	lw	a5,8(a0)
    1048:	00b787b3          	add	a5,a5,a1
    104c:	00f52423          	sw	a5,8(a0)
    1050:	00008067          	ret

00001054 <puzzle_life>:
    1054:	ff010113          	addi	sp,sp,-16
    1058:	00912223          	sw	s1,4(sp)
    105c:	00050493          	mv	s1,a0
    1060:	00002537          	lui	a0,0x2
    1064:	41c50513          	addi	a0,a0,1052 # 241c <SEGMENT_CODES+0x3a0>
    1068:	00112623          	sw	ra,12(sp)
    106c:	00812423          	sw	s0,8(sp)
    1070:	00058413          	mv	s0,a1
    1074:	ad0ff0ef          	jal	ra,344 <print>
    1078:	00002537          	lui	a0,0x2
    107c:	43850513          	addi	a0,a0,1080 # 2438 <SEGMENT_CODES+0x3bc>
    1080:	ac4ff0ef          	jal	ra,344 <print>
    1084:	00c48513          	addi	a0,s1,12
    1088:	00a00593          	li	a1,10
    108c:	01040413          	addi	s0,s0,16
    1090:	f51ff0ef          	jal	ra,fe0 <change_player_life>
    1094:	00241413          	slli	s0,s0,0x2
    1098:	00848433          	add	s0,s1,s0
    109c:	00100793          	li	a5,1
    10a0:	00c12083          	lw	ra,12(sp)
    10a4:	00f42023          	sw	a5,0(s0)
    10a8:	00812403          	lw	s0,8(sp)
    10ac:	00412483          	lw	s1,4(sp)
    10b0:	01010113          	addi	sp,sp,16
    10b4:	00008067          	ret

000010b8 <puzzle_damage>:
    10b8:	ff010113          	addi	sp,sp,-16
    10bc:	00912223          	sw	s1,4(sp)
    10c0:	00050493          	mv	s1,a0
    10c4:	00002537          	lui	a0,0x2
    10c8:	41c50513          	addi	a0,a0,1052 # 241c <SEGMENT_CODES+0x3a0>
    10cc:	00112623          	sw	ra,12(sp)
    10d0:	00812423          	sw	s0,8(sp)
    10d4:	00058413          	mv	s0,a1
    10d8:	a6cff0ef          	jal	ra,344 <print>
    10dc:	00002537          	lui	a0,0x2
    10e0:	44450513          	addi	a0,a0,1092 # 2444 <SEGMENT_CODES+0x3c8>
    10e4:	a60ff0ef          	jal	ra,344 <print>
    10e8:	00c48513          	addi	a0,s1,12
    10ec:	00500593          	li	a1,5
    10f0:	01040413          	addi	s0,s0,16
    10f4:	f41ff0ef          	jal	ra,1034 <change_damage>
    10f8:	00241413          	slli	s0,s0,0x2
    10fc:	00848433          	add	s0,s1,s0
    1100:	00100793          	li	a5,1
    1104:	00c12083          	lw	ra,12(sp)
    1108:	00f42023          	sw	a5,0(s0)
    110c:	00812403          	lw	s0,8(sp)
    1110:	00412483          	lw	s1,4(sp)
    1114:	01010113          	addi	sp,sp,16
    1118:	00008067          	ret

0000111c <puzzle_protection>:
    111c:	ff010113          	addi	sp,sp,-16
    1120:	00912223          	sw	s1,4(sp)
    1124:	00050493          	mv	s1,a0
    1128:	00002537          	lui	a0,0x2
    112c:	41c50513          	addi	a0,a0,1052 # 241c <SEGMENT_CODES+0x3a0>
    1130:	00112623          	sw	ra,12(sp)
    1134:	00812423          	sw	s0,8(sp)
    1138:	00058413          	mv	s0,a1
    113c:	a08ff0ef          	jal	ra,344 <print>
    1140:	00002537          	lui	a0,0x2
    1144:	45050513          	addi	a0,a0,1104 # 2450 <SEGMENT_CODES+0x3d4>
    1148:	9fcff0ef          	jal	ra,344 <print>
    114c:	00c48513          	addi	a0,s1,12
    1150:	00200593          	li	a1,2
    1154:	01040413          	addi	s0,s0,16
    1158:	eedff0ef          	jal	ra,1044 <change_protection>
    115c:	00241413          	slli	s0,s0,0x2
    1160:	00848433          	add	s0,s1,s0
    1164:	00100793          	li	a5,1
    1168:	00c12083          	lw	ra,12(sp)
    116c:	00f42023          	sw	a5,0(s0)
    1170:	00812403          	lw	s0,8(sp)
    1174:	00412483          	lw	s1,4(sp)
    1178:	01010113          	addi	sp,sp,16
    117c:	00008067          	ret

00001180 <puzzle1>:
    1180:	ff010113          	addi	sp,sp,-16
    1184:	00812423          	sw	s0,8(sp)
    1188:	00050413          	mv	s0,a0
    118c:	00002537          	lui	a0,0x2
    1190:	45c50513          	addi	a0,a0,1116 # 245c <SEGMENT_CODES+0x3e0>
    1194:	00112623          	sw	ra,12(sp)
    1198:	9acff0ef          	jal	ra,344 <print>
    119c:	00002537          	lui	a0,0x2
    11a0:	4c050513          	addi	a0,a0,1216 # 24c0 <SEGMENT_CODES+0x444>
    11a4:	9a0ff0ef          	jal	ra,344 <print>
    11a8:	03442783          	lw	a5,52(s0)
    11ac:	fe078ee3          	beqz	a5,11a8 <puzzle1+0x28>
    11b0:	02042a23          	sw	zero,52(s0)
    11b4:	f7cff0ef          	jal	ra,930 <get_switches>
    11b8:	00400793          	li	a5,4
    11bc:	00f50e63          	beq	a0,a5,11d8 <puzzle1+0x58>
    11c0:	00812403          	lw	s0,8(sp)
    11c4:	00c12083          	lw	ra,12(sp)
    11c8:	00002537          	lui	a0,0x2
    11cc:	4e050513          	addi	a0,a0,1248 # 24e0 <SEGMENT_CODES+0x464>
    11d0:	01010113          	addi	sp,sp,16
    11d4:	970ff06f          	j	344 <print>
    11d8:	00002537          	lui	a0,0x2
    11dc:	41c50513          	addi	a0,a0,1052 # 241c <SEGMENT_CODES+0x3a0>
    11e0:	964ff0ef          	jal	ra,344 <print>
    11e4:	00002537          	lui	a0,0x2
    11e8:	43850513          	addi	a0,a0,1080 # 2438 <SEGMENT_CODES+0x3bc>
    11ec:	958ff0ef          	jal	ra,344 <print>
    11f0:	00c40513          	addi	a0,s0,12
    11f4:	00a00593          	li	a1,10
    11f8:	de9ff0ef          	jal	ra,fe0 <change_player_life>
    11fc:	00100793          	li	a5,1
    1200:	00c12083          	lw	ra,12(sp)
    1204:	04f42223          	sw	a5,68(s0)
    1208:	00812403          	lw	s0,8(sp)
    120c:	01010113          	addi	sp,sp,16
    1210:	00008067          	ret

00001214 <puzzle2>:
    1214:	ff010113          	addi	sp,sp,-16
    1218:	00812423          	sw	s0,8(sp)
    121c:	00050413          	mv	s0,a0
    1220:	00002537          	lui	a0,0x2
    1224:	51450513          	addi	a0,a0,1300 # 2514 <SEGMENT_CODES+0x498>
    1228:	00112623          	sw	ra,12(sp)
    122c:	918ff0ef          	jal	ra,344 <print>
    1230:	00002537          	lui	a0,0x2
    1234:	58450513          	addi	a0,a0,1412 # 2584 <SEGMENT_CODES+0x508>
    1238:	90cff0ef          	jal	ra,344 <print>
    123c:	00002537          	lui	a0,0x2
    1240:	5b050513          	addi	a0,a0,1456 # 25b0 <SEGMENT_CODES+0x534>
    1244:	900ff0ef          	jal	ra,344 <print>
    1248:	03442783          	lw	a5,52(s0)
    124c:	fe078ee3          	beqz	a5,1248 <puzzle2+0x34>
    1250:	02042a23          	sw	zero,52(s0)
    1254:	edcff0ef          	jal	ra,930 <get_switches>
    1258:	00200793          	li	a5,2
    125c:	00f50e63          	beq	a0,a5,1278 <puzzle2+0x64>
    1260:	00812403          	lw	s0,8(sp)
    1264:	00c12083          	lw	ra,12(sp)
    1268:	00002537          	lui	a0,0x2
    126c:	62c50513          	addi	a0,a0,1580 # 262c <SEGMENT_CODES+0x5b0>
    1270:	01010113          	addi	sp,sp,16
    1274:	8d0ff06f          	j	344 <print>
    1278:	00002537          	lui	a0,0x2
    127c:	5e050513          	addi	a0,a0,1504 # 25e0 <SEGMENT_CODES+0x564>
    1280:	8c4ff0ef          	jal	ra,344 <print>
    1284:	00002537          	lui	a0,0x2
    1288:	41c50513          	addi	a0,a0,1052 # 241c <SEGMENT_CODES+0x3a0>
    128c:	8b8ff0ef          	jal	ra,344 <print>
    1290:	00002537          	lui	a0,0x2
    1294:	44450513          	addi	a0,a0,1092 # 2444 <SEGMENT_CODES+0x3c8>
    1298:	8acff0ef          	jal	ra,344 <print>
    129c:	00c40513          	addi	a0,s0,12
    12a0:	00500593          	li	a1,5
    12a4:	d91ff0ef          	jal	ra,1034 <change_damage>
    12a8:	00100793          	li	a5,1
    12ac:	00c12083          	lw	ra,12(sp)
    12b0:	04f42423          	sw	a5,72(s0)
    12b4:	00812403          	lw	s0,8(sp)
    12b8:	01010113          	addi	sp,sp,16
    12bc:	00008067          	ret

000012c0 <puzzle3>:
    12c0:	ff010113          	addi	sp,sp,-16
    12c4:	00812423          	sw	s0,8(sp)
    12c8:	00050413          	mv	s0,a0
    12cc:	00002537          	lui	a0,0x2
    12d0:	65c50513          	addi	a0,a0,1628 # 265c <SEGMENT_CODES+0x5e0>
    12d4:	00112623          	sw	ra,12(sp)
    12d8:	86cff0ef          	jal	ra,344 <print>
    12dc:	00002537          	lui	a0,0x2
    12e0:	6b050513          	addi	a0,a0,1712 # 26b0 <SEGMENT_CODES+0x634>
    12e4:	860ff0ef          	jal	ra,344 <print>
    12e8:	00002537          	lui	a0,0x2
    12ec:	6cc50513          	addi	a0,a0,1740 # 26cc <SEGMENT_CODES+0x650>
    12f0:	854ff0ef          	jal	ra,344 <print>
    12f4:	03442783          	lw	a5,52(s0)
    12f8:	fe078ee3          	beqz	a5,12f4 <puzzle3+0x34>
    12fc:	02042a23          	sw	zero,52(s0)
    1300:	e30ff0ef          	jal	ra,930 <get_switches>
    1304:	00400793          	li	a5,4
    1308:	00f50e63          	beq	a0,a5,1324 <puzzle3+0x64>
    130c:	00812403          	lw	s0,8(sp)
    1310:	00c12083          	lw	ra,12(sp)
    1314:	00002537          	lui	a0,0x2
    1318:	76450513          	addi	a0,a0,1892 # 2764 <__global_pointer+0x7c>
    131c:	01010113          	addi	sp,sp,16
    1320:	824ff06f          	j	344 <print>
    1324:	00002537          	lui	a0,0x2
    1328:	73450513          	addi	a0,a0,1844 # 2734 <__global_pointer+0x4c>
    132c:	818ff0ef          	jal	ra,344 <print>
    1330:	00002537          	lui	a0,0x2
    1334:	41c50513          	addi	a0,a0,1052 # 241c <SEGMENT_CODES+0x3a0>
    1338:	80cff0ef          	jal	ra,344 <print>
    133c:	00002537          	lui	a0,0x2
    1340:	45050513          	addi	a0,a0,1104 # 2450 <SEGMENT_CODES+0x3d4>
    1344:	800ff0ef          	jal	ra,344 <print>
    1348:	00c40513          	addi	a0,s0,12
    134c:	00200593          	li	a1,2
    1350:	cf5ff0ef          	jal	ra,1044 <change_protection>
    1354:	00100793          	li	a5,1
    1358:	00c12083          	lw	ra,12(sp)
    135c:	04f42623          	sw	a5,76(s0)
    1360:	00812403          	lw	s0,8(sp)
    1364:	01010113          	addi	sp,sp,16
    1368:	00008067          	ret

0000136c <puzzle4>:
    136c:	ff010113          	addi	sp,sp,-16
    1370:	00812423          	sw	s0,8(sp)
    1374:	00050413          	mv	s0,a0
    1378:	00002537          	lui	a0,0x2
    137c:	7a050513          	addi	a0,a0,1952 # 27a0 <__global_pointer+0xb8>
    1380:	00112623          	sw	ra,12(sp)
    1384:	00912223          	sw	s1,4(sp)
    1388:	fbdfe0ef          	jal	ra,344 <print>
    138c:	00002537          	lui	a0,0x2
    1390:	7e050513          	addi	a0,a0,2016 # 27e0 <__global_pointer+0xf8>
    1394:	fb1fe0ef          	jal	ra,344 <print>
    1398:	03442783          	lw	a5,52(s0)
    139c:	fe078ee3          	beqz	a5,1398 <puzzle4+0x2c>
    13a0:	02042a23          	sw	zero,52(s0)
    13a4:	d8cff0ef          	jal	ra,930 <get_switches>
    13a8:	00100793          	li	a5,1
    13ac:	00050493          	mv	s1,a0
    13b0:	02f50063          	beq	a0,a5,13d0 <puzzle4+0x64>
    13b4:	00812403          	lw	s0,8(sp)
    13b8:	00c12083          	lw	ra,12(sp)
    13bc:	00412483          	lw	s1,4(sp)
    13c0:	00003537          	lui	a0,0x3
    13c4:	82450513          	addi	a0,a0,-2012 # 2824 <__global_pointer+0x13c>
    13c8:	01010113          	addi	sp,sp,16
    13cc:	f79fe06f          	j	344 <print>
    13d0:	00003537          	lui	a0,0x3
    13d4:	80450513          	addi	a0,a0,-2044 # 2804 <__global_pointer+0x11c>
    13d8:	f6dfe0ef          	jal	ra,344 <print>
    13dc:	00002537          	lui	a0,0x2
    13e0:	41c50513          	addi	a0,a0,1052 # 241c <SEGMENT_CODES+0x3a0>
    13e4:	f61fe0ef          	jal	ra,344 <print>
    13e8:	00002537          	lui	a0,0x2
    13ec:	43850513          	addi	a0,a0,1080 # 2438 <SEGMENT_CODES+0x3bc>
    13f0:	f55fe0ef          	jal	ra,344 <print>
    13f4:	00c40513          	addi	a0,s0,12
    13f8:	00a00593          	li	a1,10
    13fc:	be5ff0ef          	jal	ra,fe0 <change_player_life>
    1400:	00c12083          	lw	ra,12(sp)
    1404:	04942823          	sw	s1,80(s0)
    1408:	00812403          	lw	s0,8(sp)
    140c:	00412483          	lw	s1,4(sp)
    1410:	01010113          	addi	sp,sp,16
    1414:	00008067          	ret

00001418 <puzzle5>:
    1418:	ff010113          	addi	sp,sp,-16
    141c:	00812423          	sw	s0,8(sp)
    1420:	00050413          	mv	s0,a0
    1424:	00003537          	lui	a0,0x3
    1428:	85450513          	addi	a0,a0,-1964 # 2854 <__global_pointer+0x16c>
    142c:	00112623          	sw	ra,12(sp)
    1430:	f15fe0ef          	jal	ra,344 <print>
    1434:	00003537          	lui	a0,0x3
    1438:	89450513          	addi	a0,a0,-1900 # 2894 <__global_pointer+0x1ac>
    143c:	f09fe0ef          	jal	ra,344 <print>
    1440:	03442783          	lw	a5,52(s0)
    1444:	fe078ee3          	beqz	a5,1440 <puzzle5+0x28>
    1448:	02042a23          	sw	zero,52(s0)
    144c:	ce4ff0ef          	jal	ra,930 <get_switches>
    1450:	00400793          	li	a5,4
    1454:	02f50663          	beq	a0,a5,1480 <puzzle5+0x68>
    1458:	00003537          	lui	a0,0x3
    145c:	92450513          	addi	a0,a0,-1756 # 2924 <__global_pointer+0x23c>
    1460:	ee5fe0ef          	jal	ra,344 <print>
    1464:	00003537          	lui	a0,0x3
    1468:	95c50513          	addi	a0,a0,-1700 # 295c <__global_pointer+0x274>
    146c:	ed9fe0ef          	jal	ra,344 <print>
    1470:	00812403          	lw	s0,8(sp)
    1474:	00c12083          	lw	ra,12(sp)
    1478:	01010113          	addi	sp,sp,16
    147c:	1810006f          	j	1dfc <stopTimer>
    1480:	00003537          	lui	a0,0x3
    1484:	8f450513          	addi	a0,a0,-1804 # 28f4 <__global_pointer+0x20c>
    1488:	ebdfe0ef          	jal	ra,344 <print>
    148c:	00002537          	lui	a0,0x2
    1490:	41c50513          	addi	a0,a0,1052 # 241c <SEGMENT_CODES+0x3a0>
    1494:	eb1fe0ef          	jal	ra,344 <print>
    1498:	00002537          	lui	a0,0x2
    149c:	44450513          	addi	a0,a0,1092 # 2444 <SEGMENT_CODES+0x3c8>
    14a0:	ea5fe0ef          	jal	ra,344 <print>
    14a4:	00c40513          	addi	a0,s0,12
    14a8:	00500593          	li	a1,5
    14ac:	b89ff0ef          	jal	ra,1034 <change_damage>
    14b0:	00100793          	li	a5,1
    14b4:	00c12083          	lw	ra,12(sp)
    14b8:	04f42a23          	sw	a5,84(s0)
    14bc:	00812403          	lw	s0,8(sp)
    14c0:	01010113          	addi	sp,sp,16
    14c4:	00008067          	ret

000014c8 <puzzle6>:
    14c8:	ff010113          	addi	sp,sp,-16
    14cc:	00812423          	sw	s0,8(sp)
    14d0:	00050413          	mv	s0,a0
    14d4:	00003537          	lui	a0,0x3
    14d8:	98850513          	addi	a0,a0,-1656 # 2988 <__global_pointer+0x2a0>
    14dc:	00112623          	sw	ra,12(sp)
    14e0:	e65fe0ef          	jal	ra,344 <print>
    14e4:	03442783          	lw	a5,52(s0)
    14e8:	fe078ee3          	beqz	a5,14e4 <puzzle6+0x1c>
    14ec:	02042a23          	sw	zero,52(s0)
    14f0:	c40ff0ef          	jal	ra,930 <get_switches>
    14f4:	00800793          	li	a5,8
    14f8:	00f50e63          	beq	a0,a5,1514 <puzzle6+0x4c>
    14fc:	00812403          	lw	s0,8(sp)
    1500:	00c12083          	lw	ra,12(sp)
    1504:	00003537          	lui	a0,0x3
    1508:	a3450513          	addi	a0,a0,-1484 # 2a34 <__global_pointer+0x34c>
    150c:	01010113          	addi	sp,sp,16
    1510:	e35fe06f          	j	344 <print>
    1514:	00003537          	lui	a0,0x3
    1518:	9f050513          	addi	a0,a0,-1552 # 29f0 <__global_pointer+0x308>
    151c:	e29fe0ef          	jal	ra,344 <print>
    1520:	00002537          	lui	a0,0x2
    1524:	41c50513          	addi	a0,a0,1052 # 241c <SEGMENT_CODES+0x3a0>
    1528:	e1dfe0ef          	jal	ra,344 <print>
    152c:	00002537          	lui	a0,0x2
    1530:	45050513          	addi	a0,a0,1104 # 2450 <SEGMENT_CODES+0x3d4>
    1534:	e11fe0ef          	jal	ra,344 <print>
    1538:	00c40513          	addi	a0,s0,12
    153c:	00200593          	li	a1,2
    1540:	b05ff0ef          	jal	ra,1044 <change_protection>
    1544:	00100793          	li	a5,1
    1548:	00c12083          	lw	ra,12(sp)
    154c:	04f42c23          	sw	a5,88(s0)
    1550:	00812403          	lw	s0,8(sp)
    1554:	01010113          	addi	sp,sp,16
    1558:	00008067          	ret

0000155c <puzzle7>:
    155c:	ff010113          	addi	sp,sp,-16
    1560:	00812423          	sw	s0,8(sp)
    1564:	00050413          	mv	s0,a0
    1568:	00003537          	lui	a0,0x3
    156c:	a7850513          	addi	a0,a0,-1416 # 2a78 <__global_pointer+0x390>
    1570:	00112623          	sw	ra,12(sp)
    1574:	00912223          	sw	s1,4(sp)
    1578:	dcdfe0ef          	jal	ra,344 <print>
    157c:	03442783          	lw	a5,52(s0)
    1580:	fe078ee3          	beqz	a5,157c <puzzle7+0x20>
    1584:	02042a23          	sw	zero,52(s0)
    1588:	ba8ff0ef          	jal	ra,930 <get_switches>
    158c:	00100793          	li	a5,1
    1590:	00050493          	mv	s1,a0
    1594:	02f50063          	beq	a0,a5,15b4 <puzzle7+0x58>
    1598:	00812403          	lw	s0,8(sp)
    159c:	00c12083          	lw	ra,12(sp)
    15a0:	00412483          	lw	s1,4(sp)
    15a4:	00003537          	lui	a0,0x3
    15a8:	b1c50513          	addi	a0,a0,-1252 # 2b1c <__global_pointer+0x434>
    15ac:	01010113          	addi	sp,sp,16
    15b0:	d95fe06f          	j	344 <print>
    15b4:	00003537          	lui	a0,0x3
    15b8:	ae850513          	addi	a0,a0,-1304 # 2ae8 <__global_pointer+0x400>
    15bc:	d89fe0ef          	jal	ra,344 <print>
    15c0:	00002537          	lui	a0,0x2
    15c4:	41c50513          	addi	a0,a0,1052 # 241c <SEGMENT_CODES+0x3a0>
    15c8:	d7dfe0ef          	jal	ra,344 <print>
    15cc:	00002537          	lui	a0,0x2
    15d0:	44450513          	addi	a0,a0,1092 # 2444 <SEGMENT_CODES+0x3c8>
    15d4:	d71fe0ef          	jal	ra,344 <print>
    15d8:	00c40513          	addi	a0,s0,12
    15dc:	00500593          	li	a1,5
    15e0:	a55ff0ef          	jal	ra,1034 <change_damage>
    15e4:	00c12083          	lw	ra,12(sp)
    15e8:	04942e23          	sw	s1,92(s0)
    15ec:	00812403          	lw	s0,8(sp)
    15f0:	00412483          	lw	s1,4(sp)
    15f4:	01010113          	addi	sp,sp,16
    15f8:	00008067          	ret

000015fc <puzzle8>:
    15fc:	03c52783          	lw	a5,60(a0)
    1600:	02078e63          	beqz	a5,163c <puzzle8+0x40>
    1604:	00003537          	lui	a0,0x3
    1608:	ff010113          	addi	sp,sp,-16
    160c:	b4050513          	addi	a0,a0,-1216 # 2b40 <__global_pointer+0x458>
    1610:	00112623          	sw	ra,12(sp)
    1614:	d31fe0ef          	jal	ra,344 <print>
    1618:	00003537          	lui	a0,0x3
    161c:	b8450513          	addi	a0,a0,-1148 # 2b84 <__global_pointer+0x49c>
    1620:	d25fe0ef          	jal	ra,344 <print>
    1624:	00003537          	lui	a0,0x3
    1628:	bc050513          	addi	a0,a0,-1088 # 2bc0 <__global_pointer+0x4d8>
    162c:	d19fe0ef          	jal	ra,344 <print>
    1630:	00c12083          	lw	ra,12(sp)
    1634:	01010113          	addi	sp,sp,16
    1638:	7c40006f          	j	1dfc <stopTimer>
    163c:	00003537          	lui	a0,0x3
    1640:	bec50513          	addi	a0,a0,-1044 # 2bec <__global_pointer+0x504>
    1644:	d01fe06f          	j	344 <print>

00001648 <solve_puzzle>:
    1648:	0005a783          	lw	a5,0(a1)
    164c:	01078713          	addi	a4,a5,16
    1650:	00271713          	slli	a4,a4,0x2
    1654:	00e50733          	add	a4,a0,a4
    1658:	00072703          	lw	a4,0(a4)
    165c:	02071c63          	bnez	a4,1694 <solve_puzzle+0x4c>
    1660:	00900713          	li	a4,9
    1664:	42f76263          	bltu	a4,a5,1a88 <solve_puzzle+0x440>
    1668:	00002737          	lui	a4,0x2
    166c:	00279793          	slli	a5,a5,0x2
    1670:	02c70713          	addi	a4,a4,44 # 202c <tick_count+0x4>
    1674:	00e787b3          	add	a5,a5,a4
    1678:	0007a783          	lw	a5,0(a5)
    167c:	ff010113          	addi	sp,sp,-16
    1680:	00812423          	sw	s0,8(sp)
    1684:	00112623          	sw	ra,12(sp)
    1688:	00912223          	sw	s1,4(sp)
    168c:	00050413          	mv	s0,a0
    1690:	00078067          	jr	a5
    1694:	00003537          	lui	a0,0x3
    1698:	c3850513          	addi	a0,a0,-968 # 2c38 <__global_pointer+0x550>
    169c:	ca9fe06f          	j	344 <print>
    16a0:	03c52783          	lw	a5,60(a0)
    16a4:	24078463          	beqz	a5,18ec <solve_puzzle+0x2a4>
    16a8:	00003537          	lui	a0,0x3
    16ac:	b4050513          	addi	a0,a0,-1216 # 2b40 <__global_pointer+0x458>
    16b0:	c95fe0ef          	jal	ra,344 <print>
    16b4:	00003537          	lui	a0,0x3
    16b8:	b8450513          	addi	a0,a0,-1148 # 2b84 <__global_pointer+0x49c>
    16bc:	c89fe0ef          	jal	ra,344 <print>
    16c0:	00003537          	lui	a0,0x3
    16c4:	bc050513          	addi	a0,a0,-1088 # 2bc0 <__global_pointer+0x4d8>
    16c8:	c7dfe0ef          	jal	ra,344 <print>
    16cc:	730000ef          	jal	ra,1dfc <stopTimer>
    16d0:	0e80006f          	j	17b8 <solve_puzzle+0x170>
    16d4:	00002537          	lui	a0,0x2
    16d8:	45c50513          	addi	a0,a0,1116 # 245c <SEGMENT_CODES+0x3e0>
    16dc:	c69fe0ef          	jal	ra,344 <print>
    16e0:	00002537          	lui	a0,0x2
    16e4:	4c050513          	addi	a0,a0,1216 # 24c0 <SEGMENT_CODES+0x444>
    16e8:	c5dfe0ef          	jal	ra,344 <print>
    16ec:	03442783          	lw	a5,52(s0)
    16f0:	fe078ee3          	beqz	a5,16ec <solve_puzzle+0xa4>
    16f4:	02042a23          	sw	zero,52(s0)
    16f8:	a38ff0ef          	jal	ra,930 <get_switches>
    16fc:	00400793          	li	a5,4
    1700:	32f50063          	beq	a0,a5,1a20 <solve_puzzle+0x3d8>
    1704:	00002537          	lui	a0,0x2
    1708:	4e050513          	addi	a0,a0,1248 # 24e0 <SEGMENT_CODES+0x464>
    170c:	c39fe0ef          	jal	ra,344 <print>
    1710:	0a80006f          	j	17b8 <solve_puzzle+0x170>
    1714:	00002537          	lui	a0,0x2
    1718:	51450513          	addi	a0,a0,1300 # 2514 <SEGMENT_CODES+0x498>
    171c:	c29fe0ef          	jal	ra,344 <print>
    1720:	00002537          	lui	a0,0x2
    1724:	58450513          	addi	a0,a0,1412 # 2584 <SEGMENT_CODES+0x508>
    1728:	c1dfe0ef          	jal	ra,344 <print>
    172c:	00002537          	lui	a0,0x2
    1730:	5b050513          	addi	a0,a0,1456 # 25b0 <SEGMENT_CODES+0x534>
    1734:	c11fe0ef          	jal	ra,344 <print>
    1738:	03442783          	lw	a5,52(s0)
    173c:	fe078ee3          	beqz	a5,1738 <solve_puzzle+0xf0>
    1740:	02042a23          	sw	zero,52(s0)
    1744:	9ecff0ef          	jal	ra,930 <get_switches>
    1748:	00200793          	li	a5,2
    174c:	28f50c63          	beq	a0,a5,19e4 <solve_puzzle+0x39c>
    1750:	00002537          	lui	a0,0x2
    1754:	62c50513          	addi	a0,a0,1580 # 262c <SEGMENT_CODES+0x5b0>
    1758:	bedfe0ef          	jal	ra,344 <print>
    175c:	05c0006f          	j	17b8 <solve_puzzle+0x170>
    1760:	00002537          	lui	a0,0x2
    1764:	65c50513          	addi	a0,a0,1628 # 265c <SEGMENT_CODES+0x5e0>
    1768:	bddfe0ef          	jal	ra,344 <print>
    176c:	00002537          	lui	a0,0x2
    1770:	6b050513          	addi	a0,a0,1712 # 26b0 <SEGMENT_CODES+0x634>
    1774:	bd1fe0ef          	jal	ra,344 <print>
    1778:	00002537          	lui	a0,0x2
    177c:	6cc50513          	addi	a0,a0,1740 # 26cc <SEGMENT_CODES+0x650>
    1780:	bc5fe0ef          	jal	ra,344 <print>
    1784:	03442783          	lw	a5,52(s0)
    1788:	fe078ee3          	beqz	a5,1784 <solve_puzzle+0x13c>
    178c:	02042a23          	sw	zero,52(s0)
    1790:	9a0ff0ef          	jal	ra,930 <get_switches>
    1794:	00400793          	li	a5,4
    1798:	20f50863          	beq	a0,a5,19a8 <solve_puzzle+0x360>
    179c:	00002537          	lui	a0,0x2
    17a0:	76450513          	addi	a0,a0,1892 # 2764 <__global_pointer+0x7c>
    17a4:	ba1fe0ef          	jal	ra,344 <print>
    17a8:	0100006f          	j	17b8 <solve_puzzle+0x170>
    17ac:	00003537          	lui	a0,0x3
    17b0:	c6050513          	addi	a0,a0,-928 # 2c60 <__global_pointer+0x578>
    17b4:	b91fe0ef          	jal	ra,344 <print>
    17b8:	01c42503          	lw	a0,28(s0)
    17bc:	00812403          	lw	s0,8(sp)
    17c0:	00c12083          	lw	ra,12(sp)
    17c4:	00412483          	lw	s1,4(sp)
    17c8:	01010113          	addi	sp,sp,16
    17cc:	994ff06f          	j	960 <print_meny>
    17d0:	00002537          	lui	a0,0x2
    17d4:	7a050513          	addi	a0,a0,1952 # 27a0 <__global_pointer+0xb8>
    17d8:	b6dfe0ef          	jal	ra,344 <print>
    17dc:	00002537          	lui	a0,0x2
    17e0:	7e050513          	addi	a0,a0,2016 # 27e0 <__global_pointer+0xf8>
    17e4:	b61fe0ef          	jal	ra,344 <print>
    17e8:	03442783          	lw	a5,52(s0)
    17ec:	fe078ee3          	beqz	a5,17e8 <solve_puzzle+0x1a0>
    17f0:	02042a23          	sw	zero,52(s0)
    17f4:	93cff0ef          	jal	ra,930 <get_switches>
    17f8:	00100793          	li	a5,1
    17fc:	00050493          	mv	s1,a0
    1800:	12f50a63          	beq	a0,a5,1934 <solve_puzzle+0x2ec>
    1804:	00003537          	lui	a0,0x3
    1808:	82450513          	addi	a0,a0,-2012 # 2824 <__global_pointer+0x13c>
    180c:	b39fe0ef          	jal	ra,344 <print>
    1810:	fa9ff06f          	j	17b8 <solve_puzzle+0x170>
    1814:	00003537          	lui	a0,0x3
    1818:	98850513          	addi	a0,a0,-1656 # 2988 <__global_pointer+0x2a0>
    181c:	b29fe0ef          	jal	ra,344 <print>
    1820:	03442783          	lw	a5,52(s0)
    1824:	fe078ee3          	beqz	a5,1820 <solve_puzzle+0x1d8>
    1828:	02042a23          	sw	zero,52(s0)
    182c:	904ff0ef          	jal	ra,930 <get_switches>
    1830:	00800793          	li	a5,8
    1834:	12f50c63          	beq	a0,a5,196c <solve_puzzle+0x324>
    1838:	00003537          	lui	a0,0x3
    183c:	a3450513          	addi	a0,a0,-1484 # 2a34 <__global_pointer+0x34c>
    1840:	b05fe0ef          	jal	ra,344 <print>
    1844:	f75ff06f          	j	17b8 <solve_puzzle+0x170>
    1848:	00003537          	lui	a0,0x3
    184c:	85450513          	addi	a0,a0,-1964 # 2854 <__global_pointer+0x16c>
    1850:	af5fe0ef          	jal	ra,344 <print>
    1854:	00003537          	lui	a0,0x3
    1858:	89450513          	addi	a0,a0,-1900 # 2894 <__global_pointer+0x1ac>
    185c:	ae9fe0ef          	jal	ra,344 <print>
    1860:	03442783          	lw	a5,52(s0)
    1864:	fe078ee3          	beqz	a5,1860 <solve_puzzle+0x218>
    1868:	02042a23          	sw	zero,52(s0)
    186c:	8c4ff0ef          	jal	ra,930 <get_switches>
    1870:	00400793          	li	a5,4
    1874:	08f50263          	beq	a0,a5,18f8 <solve_puzzle+0x2b0>
    1878:	00003537          	lui	a0,0x3
    187c:	92450513          	addi	a0,a0,-1756 # 2924 <__global_pointer+0x23c>
    1880:	ac5fe0ef          	jal	ra,344 <print>
    1884:	00003537          	lui	a0,0x3
    1888:	95c50513          	addi	a0,a0,-1700 # 295c <__global_pointer+0x274>
    188c:	ab9fe0ef          	jal	ra,344 <print>
    1890:	56c000ef          	jal	ra,1dfc <stopTimer>
    1894:	f25ff06f          	j	17b8 <solve_puzzle+0x170>
    1898:	00003537          	lui	a0,0x3
    189c:	a7850513          	addi	a0,a0,-1416 # 2a78 <__global_pointer+0x390>
    18a0:	aa5fe0ef          	jal	ra,344 <print>
    18a4:	03442783          	lw	a5,52(s0)
    18a8:	fe078ee3          	beqz	a5,18a4 <solve_puzzle+0x25c>
    18ac:	02042a23          	sw	zero,52(s0)
    18b0:	880ff0ef          	jal	ra,930 <get_switches>
    18b4:	00100793          	li	a5,1
    18b8:	00050493          	mv	s1,a0
    18bc:	18f50a63          	beq	a0,a5,1a50 <solve_puzzle+0x408>
    18c0:	00003537          	lui	a0,0x3
    18c4:	b1c50513          	addi	a0,a0,-1252 # 2b1c <__global_pointer+0x434>
    18c8:	a7dfe0ef          	jal	ra,344 <print>
    18cc:	eedff06f          	j	17b8 <solve_puzzle+0x170>
    18d0:	00812403          	lw	s0,8(sp)
    18d4:	00c12083          	lw	ra,12(sp)
    18d8:	00412483          	lw	s1,4(sp)
    18dc:	00003537          	lui	a0,0x3
    18e0:	c9050513          	addi	a0,a0,-880 # 2c90 <__global_pointer+0x5a8>
    18e4:	01010113          	addi	sp,sp,16
    18e8:	a5dfe06f          	j	344 <print>
    18ec:	00003537          	lui	a0,0x3
    18f0:	bec50513          	addi	a0,a0,-1044 # 2bec <__global_pointer+0x504>
    18f4:	ec1ff06f          	j	17b4 <solve_puzzle+0x16c>
    18f8:	00003537          	lui	a0,0x3
    18fc:	8f450513          	addi	a0,a0,-1804 # 28f4 <__global_pointer+0x20c>
    1900:	a45fe0ef          	jal	ra,344 <print>
    1904:	00002537          	lui	a0,0x2
    1908:	41c50513          	addi	a0,a0,1052 # 241c <SEGMENT_CODES+0x3a0>
    190c:	a39fe0ef          	jal	ra,344 <print>
    1910:	00002537          	lui	a0,0x2
    1914:	44450513          	addi	a0,a0,1092 # 2444 <SEGMENT_CODES+0x3c8>
    1918:	a2dfe0ef          	jal	ra,344 <print>
    191c:	00500593          	li	a1,5
    1920:	00c40513          	addi	a0,s0,12
    1924:	f10ff0ef          	jal	ra,1034 <change_damage>
    1928:	00100793          	li	a5,1
    192c:	04f42a23          	sw	a5,84(s0)
    1930:	e89ff06f          	j	17b8 <solve_puzzle+0x170>
    1934:	00003537          	lui	a0,0x3
    1938:	80450513          	addi	a0,a0,-2044 # 2804 <__global_pointer+0x11c>
    193c:	a09fe0ef          	jal	ra,344 <print>
    1940:	00002537          	lui	a0,0x2
    1944:	41c50513          	addi	a0,a0,1052 # 241c <SEGMENT_CODES+0x3a0>
    1948:	9fdfe0ef          	jal	ra,344 <print>
    194c:	00002537          	lui	a0,0x2
    1950:	43850513          	addi	a0,a0,1080 # 2438 <SEGMENT_CODES+0x3bc>
    1954:	9f1fe0ef          	jal	ra,344 <print>
    1958:	00a00593          	li	a1,10
    195c:	00c40513          	addi	a0,s0,12
    1960:	e80ff0ef          	jal	ra,fe0 <change_player_life>
    1964:	04942823          	sw	s1,80(s0)
    1968:	e51ff06f          	j	17b8 <solve_puzzle+0x170>
    196c:	00003537          	lui	a0,0x3
    1970:	9f050513          	addi	a0,a0,-1552 # 29f0 <__global_pointer+0x308>
    1974:	9d1fe0ef          	jal	ra,344 <print>
    1978:	00002537          	lui	a0,0x2
    197c:	41c50513          	addi	a0,a0,1052 # 241c <SEGMENT_CODES+0x3a0>
    1980:	9c5fe0ef          	jal	ra,344 <print>
    1984:	00002537          	lui	a0,0x2
    1988:	45050513          	addi	a0,a0,1104 # 2450 <SEGMENT_CODES+0x3d4>
    198c:	9b9fe0ef          	jal	ra,344 <print>
    1990:	00200593          	li	a1,2
    1994:	00c40513          	addi	a0,s0,12
    1998:	eacff0ef          	jal	ra,1044 <change_protection>
    199c:	00100793          	li	a5,1
    19a0:	04f42c23          	sw	a5,88(s0)
    19a4:	e15ff06f          	j	17b8 <solve_puzzle+0x170>
    19a8:	00002537          	lui	a0,0x2
    19ac:	73450513          	addi	a0,a0,1844 # 2734 <__global_pointer+0x4c>
    19b0:	995fe0ef          	jal	ra,344 <print>
    19b4:	00002537          	lui	a0,0x2
    19b8:	41c50513          	addi	a0,a0,1052 # 241c <SEGMENT_CODES+0x3a0>
    19bc:	989fe0ef          	jal	ra,344 <print>
    19c0:	00002537          	lui	a0,0x2
    19c4:	45050513          	addi	a0,a0,1104 # 2450 <SEGMENT_CODES+0x3d4>
    19c8:	97dfe0ef          	jal	ra,344 <print>
    19cc:	00200593          	li	a1,2
    19d0:	00c40513          	addi	a0,s0,12
    19d4:	e70ff0ef          	jal	ra,1044 <change_protection>
    19d8:	00100793          	li	a5,1
    19dc:	04f42623          	sw	a5,76(s0)
    19e0:	dd9ff06f          	j	17b8 <solve_puzzle+0x170>
    19e4:	00002537          	lui	a0,0x2
    19e8:	5e050513          	addi	a0,a0,1504 # 25e0 <SEGMENT_CODES+0x564>
    19ec:	959fe0ef          	jal	ra,344 <print>
    19f0:	00002537          	lui	a0,0x2
    19f4:	41c50513          	addi	a0,a0,1052 # 241c <SEGMENT_CODES+0x3a0>
    19f8:	94dfe0ef          	jal	ra,344 <print>
    19fc:	00002537          	lui	a0,0x2
    1a00:	44450513          	addi	a0,a0,1092 # 2444 <SEGMENT_CODES+0x3c8>
    1a04:	941fe0ef          	jal	ra,344 <print>
    1a08:	00500593          	li	a1,5
    1a0c:	00c40513          	addi	a0,s0,12
    1a10:	e24ff0ef          	jal	ra,1034 <change_damage>
    1a14:	00100793          	li	a5,1
    1a18:	04f42423          	sw	a5,72(s0)
    1a1c:	d9dff06f          	j	17b8 <solve_puzzle+0x170>
    1a20:	00002537          	lui	a0,0x2
    1a24:	41c50513          	addi	a0,a0,1052 # 241c <SEGMENT_CODES+0x3a0>
    1a28:	91dfe0ef          	jal	ra,344 <print>
    1a2c:	00002537          	lui	a0,0x2
    1a30:	43850513          	addi	a0,a0,1080 # 2438 <SEGMENT_CODES+0x3bc>
    1a34:	911fe0ef          	jal	ra,344 <print>
    1a38:	00a00593          	li	a1,10
    1a3c:	00c40513          	addi	a0,s0,12
    1a40:	da0ff0ef          	jal	ra,fe0 <change_player_life>
    1a44:	00100793          	li	a5,1
    1a48:	04f42223          	sw	a5,68(s0)
    1a4c:	d6dff06f          	j	17b8 <solve_puzzle+0x170>
    1a50:	00003537          	lui	a0,0x3
    1a54:	ae850513          	addi	a0,a0,-1304 # 2ae8 <__global_pointer+0x400>
    1a58:	8edfe0ef          	jal	ra,344 <print>
    1a5c:	00002537          	lui	a0,0x2
    1a60:	41c50513          	addi	a0,a0,1052 # 241c <SEGMENT_CODES+0x3a0>
    1a64:	8e1fe0ef          	jal	ra,344 <print>
    1a68:	00002537          	lui	a0,0x2
    1a6c:	44450513          	addi	a0,a0,1092 # 2444 <SEGMENT_CODES+0x3c8>
    1a70:	8d5fe0ef          	jal	ra,344 <print>
    1a74:	00500593          	li	a1,5
    1a78:	00c40513          	addi	a0,s0,12
    1a7c:	db8ff0ef          	jal	ra,1034 <change_damage>
    1a80:	04942e23          	sw	s1,92(s0)
    1a84:	d35ff06f          	j	17b8 <solve_puzzle+0x170>
    1a88:	00003537          	lui	a0,0x3
    1a8c:	c9050513          	addi	a0,a0,-880 # 2c90 <__global_pointer+0x5a8>
    1a90:	8b5fe06f          	j	344 <print>

00001a94 <create_rooms>:
    1a94:	000027b7          	lui	a5,0x2
    1a98:	f6c78793          	addi	a5,a5,-148 # 1f6c <room1>
    1a9c:	00100713          	li	a4,1
    1aa0:	00e7a023          	sw	a4,0(a5)
    1aa4:	00003737          	lui	a4,0x3
    1aa8:	cac70713          	addi	a4,a4,-852 # 2cac <__global_pointer+0x5c4>
    1aac:	00e7a223          	sw	a4,4(a5)
    1ab0:	00003737          	lui	a4,0x3
    1ab4:	cbc70713          	addi	a4,a4,-836 # 2cbc <__global_pointer+0x5d4>
    1ab8:	00e7a423          	sw	a4,8(a5)
    1abc:	00200713          	li	a4,2
    1ac0:	00e7aa23          	sw	a4,20(a5)
    1ac4:	00003737          	lui	a4,0x3
    1ac8:	cd870713          	addi	a4,a4,-808 # 2cd8 <__global_pointer+0x5f0>
    1acc:	00e7ac23          	sw	a4,24(a5)
    1ad0:	00003737          	lui	a4,0x3
    1ad4:	ce070713          	addi	a4,a4,-800 # 2ce0 <__global_pointer+0x5f8>
    1ad8:	00e7ae23          	sw	a4,28(a5)
    1adc:	00300713          	li	a4,3
    1ae0:	02e7ae23          	sw	a4,60(a5)
    1ae4:	00003737          	lui	a4,0x3
    1ae8:	d0470713          	addi	a4,a4,-764 # 2d04 <__global_pointer+0x61c>
    1aec:	04e7a023          	sw	a4,64(a5)
    1af0:	00003737          	lui	a4,0x3
    1af4:	d0c70713          	addi	a4,a4,-756 # 2d0c <__global_pointer+0x624>
    1af8:	04e7a223          	sw	a4,68(a5)
    1afc:	00400713          	li	a4,4
    1b00:	04e7a823          	sw	a4,80(a5)
    1b04:	00003737          	lui	a4,0x3
    1b08:	d2c70713          	addi	a4,a4,-724 # 2d2c <__global_pointer+0x644>
    1b0c:	04e7aa23          	sw	a4,84(a5)
    1b10:	00003737          	lui	a4,0x3
    1b14:	d3870713          	addi	a4,a4,-712 # 2d38 <__global_pointer+0x650>
    1b18:	04e7ac23          	sw	a4,88(a5)
    1b1c:	00500713          	li	a4,5
    1b20:	06e7a223          	sw	a4,100(a5)
    1b24:	00003737          	lui	a4,0x3
    1b28:	d5470713          	addi	a4,a4,-684 # 2d54 <__global_pointer+0x66c>
    1b2c:	06e7a423          	sw	a4,104(a5)
    1b30:	00003737          	lui	a4,0x3
    1b34:	d5c70713          	addi	a4,a4,-676 # 2d5c <__global_pointer+0x674>
    1b38:	06e7a623          	sw	a4,108(a5)
    1b3c:	00600713          	li	a4,6
    1b40:	06e7ac23          	sw	a4,120(a5)
    1b44:	00003737          	lui	a4,0x3
    1b48:	d7870713          	addi	a4,a4,-648 # 2d78 <__global_pointer+0x690>
    1b4c:	06e7ae23          	sw	a4,124(a5)
    1b50:	00003737          	lui	a4,0x3
    1b54:	d8470713          	addi	a4,a4,-636 # 2d84 <__global_pointer+0x69c>
    1b58:	08e7a023          	sw	a4,128(a5)
    1b5c:	00700713          	li	a4,7
    1b60:	08e7a623          	sw	a4,140(a5)
    1b64:	00003737          	lui	a4,0x3
    1b68:	da870713          	addi	a4,a4,-600 # 2da8 <__global_pointer+0x6c0>
    1b6c:	01478e13          	addi	t3,a5,20
    1b70:	02878593          	addi	a1,a5,40
    1b74:	03c78313          	addi	t1,a5,60
    1b78:	05078893          	addi	a7,a5,80
    1b7c:	06478813          	addi	a6,a5,100
    1b80:	07878513          	addi	a0,a5,120
    1b84:	08c78613          	addi	a2,a5,140
    1b88:	08e7a823          	sw	a4,144(a5)
    1b8c:	00003737          	lui	a4,0x3
    1b90:	db470713          	addi	a4,a4,-588 # 2db4 <__global_pointer+0x6cc>
    1b94:	01c7a623          	sw	t3,12(a5)
    1b98:	00b7a823          	sw	a1,16(a5)
    1b9c:	0267a023          	sw	t1,32(a5)
    1ba0:	02f7a223          	sw	a5,36(a5)
    1ba4:	0517a423          	sw	a7,72(a5)
    1ba8:	05c7a623          	sw	t3,76(a5)
    1bac:	0507ae23          	sw	a6,92(a5)
    1bb0:	0667a023          	sw	t1,96(a5)
    1bb4:	06a7a823          	sw	a0,112(a5)
    1bb8:	0717aa23          	sw	a7,116(a5)
    1bbc:	08c7a223          	sw	a2,132(a5)
    1bc0:	0907a423          	sw	a6,136(a5)
    1bc4:	08e7aa23          	sw	a4,148(a5)
    1bc8:	00800713          	li	a4,8
    1bcc:	0ae7a023          	sw	a4,160(a5)
    1bd0:	00003737          	lui	a4,0x3
    1bd4:	ddc70713          	addi	a4,a4,-548 # 2ddc <__global_pointer+0x6f4>
    1bd8:	0ae7a223          	sw	a4,164(a5)
    1bdc:	00003737          	lui	a4,0x3
    1be0:	de870713          	addi	a4,a4,-536 # 2de8 <__global_pointer+0x700>
    1be4:	0ae7a423          	sw	a4,168(a5)
    1be8:	00900713          	li	a4,9
    1bec:	02e7a423          	sw	a4,40(a5)
    1bf0:	00003737          	lui	a4,0x3
    1bf4:	e0870713          	addi	a4,a4,-504 # 2e08 <__global_pointer+0x720>
    1bf8:	02e7a623          	sw	a4,44(a5)
    1bfc:	00003737          	lui	a4,0x3
    1c00:	0a078693          	addi	a3,a5,160
    1c04:	e1070713          	addi	a4,a4,-496 # 2e10 <__global_pointer+0x728>
    1c08:	08d7ac23          	sw	a3,152(a5)
    1c0c:	08a7ae23          	sw	a0,156(a5)
    1c10:	0ab7a623          	sw	a1,172(a5)
    1c14:	0ac7a823          	sw	a2,176(a5)
    1c18:	02e7a823          	sw	a4,48(a5)
    1c1c:	02f7aa23          	sw	a5,52(a5)
    1c20:	02d7ac23          	sw	a3,56(a5)
    1c24:	00008067          	ret

00001c28 <print_room_info>:
    1c28:	ff010113          	addi	sp,sp,-16
    1c2c:	00812423          	sw	s0,8(sp)
    1c30:	00050413          	mv	s0,a0
    1c34:	00003537          	lui	a0,0x3
    1c38:	e2c50513          	addi	a0,a0,-468 # 2e2c <__global_pointer+0x744>
    1c3c:	00112623          	sw	ra,12(sp)
    1c40:	f04fe0ef          	jal	ra,344 <print>
    1c44:	00442503          	lw	a0,4(s0)
    1c48:	efcfe0ef          	jal	ra,344 <print>
    1c4c:	00003537          	lui	a0,0x3
    1c50:	e3c50513          	addi	a0,a0,-452 # 2e3c <__global_pointer+0x754>
    1c54:	ef0fe0ef          	jal	ra,344 <print>
    1c58:	00842503          	lw	a0,8(s0)
    1c5c:	ee8fe0ef          	jal	ra,344 <print>
    1c60:	00812403          	lw	s0,8(sp)
    1c64:	00c12083          	lw	ra,12(sp)
    1c68:	00002537          	lui	a0,0x2
    1c6c:	44050513          	addi	a0,a0,1088 # 2440 <SEGMENT_CODES+0x3c4>
    1c70:	01010113          	addi	sp,sp,16
    1c74:	ed0fe06f          	j	344 <print>

00001c78 <inspect_room>:
    1c78:	00052783          	lw	a5,0(a0)
    1c7c:	00900713          	li	a4,9
    1c80:	08f76463          	bltu	a4,a5,1d08 <inspect_room+0x90>
    1c84:	00002737          	lui	a4,0x2
    1c88:	00279793          	slli	a5,a5,0x2
    1c8c:	05470713          	addi	a4,a4,84 # 2054 <tick_count+0x2c>
    1c90:	00e787b3          	add	a5,a5,a4
    1c94:	0007a783          	lw	a5,0(a5)
    1c98:	00078067          	jr	a5
    1c9c:	00003537          	lui	a0,0x3
    1ca0:	fbc50513          	addi	a0,a0,-68 # 2fbc <__global_pointer+0x8d4>
    1ca4:	ea0fe06f          	j	344 <print>
    1ca8:	00003537          	lui	a0,0x3
    1cac:	e4450513          	addi	a0,a0,-444 # 2e44 <__global_pointer+0x75c>
    1cb0:	e94fe06f          	j	344 <print>
    1cb4:	00003537          	lui	a0,0x3
    1cb8:	e7050513          	addi	a0,a0,-400 # 2e70 <__global_pointer+0x788>
    1cbc:	e88fe06f          	j	344 <print>
    1cc0:	00003537          	lui	a0,0x3
    1cc4:	ea050513          	addi	a0,a0,-352 # 2ea0 <__global_pointer+0x7b8>
    1cc8:	e7cfe06f          	j	344 <print>
    1ccc:	00003537          	lui	a0,0x3
    1cd0:	ecc50513          	addi	a0,a0,-308 # 2ecc <__global_pointer+0x7e4>
    1cd4:	e70fe06f          	j	344 <print>
    1cd8:	00003537          	lui	a0,0x3
    1cdc:	ef850513          	addi	a0,a0,-264 # 2ef8 <__global_pointer+0x810>
    1ce0:	e64fe06f          	j	344 <print>
    1ce4:	00003537          	lui	a0,0x3
    1ce8:	f2050513          	addi	a0,a0,-224 # 2f20 <__global_pointer+0x838>
    1cec:	e58fe06f          	j	344 <print>
    1cf0:	00003537          	lui	a0,0x3
    1cf4:	f5450513          	addi	a0,a0,-172 # 2f54 <__global_pointer+0x86c>
    1cf8:	e4cfe06f          	j	344 <print>
    1cfc:	00003537          	lui	a0,0x3
    1d00:	f8c50513          	addi	a0,a0,-116 # 2f8c <__global_pointer+0x8a4>
    1d04:	e40fe06f          	j	344 <print>
    1d08:	00003537          	lui	a0,0x3
    1d0c:	fe450513          	addi	a0,a0,-28 # 2fe4 <__global_pointer+0x8fc>
    1d10:	e34fe06f          	j	344 <print>

00001d14 <updateTimer>:
    1d14:	040006b7          	lui	a3,0x4000
    1d18:	0ff00793          	li	a5,255
    1d1c:	0af6a023          	sw	a5,160(a3) # 40000a0 <_stack_end+0x3efd098>
    1d20:	08f6a823          	sw	a5,144(a3)
    1d24:	00052703          	lw	a4,0(a0)
    1d28:	00a00613          	li	a2,10
    1d2c:	000027b7          	lui	a5,0x2
    1d30:	02c74733          	div	a4,a4,a2
    1d34:	07c78793          	addi	a5,a5,124 # 207c <SEGMENT_CODES>
    1d38:	00271713          	slli	a4,a4,0x2
    1d3c:	00e78733          	add	a4,a5,a4
    1d40:	00072703          	lw	a4,0(a4)
    1d44:	08e6a023          	sw	a4,128(a3)
    1d48:	00052703          	lw	a4,0(a0)
    1d4c:	02c76733          	rem	a4,a4,a2
    1d50:	00271713          	slli	a4,a4,0x2
    1d54:	00e78733          	add	a4,a5,a4
    1d58:	00072703          	lw	a4,0(a4)
    1d5c:	07f77713          	andi	a4,a4,127
    1d60:	06e6a823          	sw	a4,112(a3)
    1d64:	00452703          	lw	a4,4(a0)
    1d68:	02c74733          	div	a4,a4,a2
    1d6c:	00271713          	slli	a4,a4,0x2
    1d70:	00e78733          	add	a4,a5,a4
    1d74:	00072703          	lw	a4,0(a4)
    1d78:	06e6a023          	sw	a4,96(a3)
    1d7c:	00452703          	lw	a4,4(a0)
    1d80:	02c76733          	rem	a4,a4,a2
    1d84:	00271713          	slli	a4,a4,0x2
    1d88:	00e787b3          	add	a5,a5,a4
    1d8c:	0007a783          	lw	a5,0(a5)
    1d90:	04f6a823          	sw	a5,80(a3)
    1d94:	00008067          	ret

00001d98 <tick>:
    1d98:	00052703          	lw	a4,0(a0)
    1d9c:	00452683          	lw	a3,4(a0)
    1da0:	00471793          	slli	a5,a4,0x4
    1da4:	40e787b3          	sub	a5,a5,a4
    1da8:	00279793          	slli	a5,a5,0x2
    1dac:	00d787b3          	add	a5,a5,a3
    1db0:	00b785b3          	add	a1,a5,a1
    1db4:	fff5c793          	not	a5,a1
    1db8:	41f7d793          	srai	a5,a5,0x1f
    1dbc:	00f5f5b3          	and	a1,a1,a5
    1dc0:	03c00793          	li	a5,60
    1dc4:	02f5c733          	div	a4,a1,a5
    1dc8:	02f5e5b3          	rem	a1,a1,a5
    1dcc:	00e52023          	sw	a4,0(a0)
    1dd0:	00b52223          	sw	a1,4(a0)
    1dd4:	00008067          	ret

00001dd8 <startTimer>:
    1dd8:	0000c737          	lui	a4,0xc
    1ddc:	040007b7          	lui	a5,0x4000
    1de0:	6c070713          	addi	a4,a4,1728 # c6c0 <__global_pointer+0x9fd8>
    1de4:	02e7a423          	sw	a4,40(a5) # 4000028 <_stack_end+0x3efd020>
    1de8:	02d00713          	li	a4,45
    1dec:	02e7a623          	sw	a4,44(a5)
    1df0:	00700713          	li	a4,7
    1df4:	02e7a223          	sw	a4,36(a5)
    1df8:	00008067          	ret

00001dfc <stopTimer>:
    1dfc:	040007b7          	lui	a5,0x4000
    1e00:	0207a223          	sw	zero,36(a5) # 4000024 <_stack_end+0x3efd01c>
    1e04:	00008067          	ret

00001e08 <check_timer_done>:
    1e08:	00050793          	mv	a5,a0
    1e0c:	00052503          	lw	a0,0(a0)
    1e10:	00051863          	bnez	a0,1e20 <check_timer_done+0x18>
    1e14:	0047a783          	lw	a5,4(a5)
    1e18:	00078863          	beqz	a5,1e28 <check_timer_done+0x20>
    1e1c:	00008067          	ret
    1e20:	00000513          	li	a0,0
    1e24:	00008067          	ret
    1e28:	00003537          	lui	a0,0x3
    1e2c:	ff010113          	addi	sp,sp,-16
    1e30:	ff450513          	addi	a0,a0,-12 # 2ff4 <__global_pointer+0x90c>
    1e34:	00112623          	sw	ra,12(sp)
    1e38:	d0cfe0ef          	jal	ra,344 <print>
    1e3c:	00c12083          	lw	ra,12(sp)
    1e40:	040007b7          	lui	a5,0x4000
    1e44:	0207a223          	sw	zero,36(a5) # 4000024 <_stack_end+0x3efd01c>
    1e48:	00100513          	li	a0,1
    1e4c:	01010113          	addi	sp,sp,16
    1e50:	00008067          	ret

Disassembly of section .data:

00001e54 <welcome_msg>:
    1e54:	3d3d                	jal	1c92 <inspect_room+0x1a>
    1e56:	3d3d                	jal	1c94 <inspect_room+0x1c>
    1e58:	3d3d                	jal	1c96 <inspect_room+0x1e>
    1e5a:	3d3d                	jal	1c98 <inspect_room+0x20>
    1e5c:	3d3d                	jal	1c9a <inspect_room+0x22>
    1e5e:	3d3d                	jal	1c9c <inspect_room+0x24>
    1e60:	3d3d                	jal	1c9e <inspect_room+0x26>
    1e62:	3d3d                	jal	1ca0 <inspect_room+0x28>
    1e64:	3d3d                	jal	1ca2 <inspect_room+0x2a>
    1e66:	3d3d                	jal	1ca4 <inspect_room+0x2c>
    1e68:	3d3d                	jal	1ca6 <inspect_room+0x2e>
    1e6a:	3d3d                	jal	1ca8 <inspect_room+0x30>
    1e6c:	3d3d                	jal	1caa <inspect_room+0x32>
    1e6e:	3d3d                	jal	1cac <inspect_room+0x34>
    1e70:	3d3d                	jal	1cae <inspect_room+0x36>
    1e72:	3d3d                	jal	1cb0 <inspect_room+0x38>
    1e74:	3d3d                	jal	1cb2 <inspect_room+0x3a>
    1e76:	3d3d                	jal	1cb4 <inspect_room+0x3c>
    1e78:	3d3d                	jal	1cb6 <inspect_room+0x3e>
    1e7a:	3d3d                	jal	1cb8 <inspect_room+0x40>
    1e7c:	3d3d                	jal	1cba <inspect_room+0x42>
    1e7e:	3d3d                	jal	1cbc <inspect_room+0x44>
    1e80:	3d3d                	jal	1cbe <inspect_room+0x46>
    1e82:	3d3d                	jal	1cc0 <inspect_room+0x48>
    1e84:	3d0a                	fld	fs10,160(sp)
    1e86:	3d3d                	jal	1cc4 <inspect_room+0x4c>
    1e88:	3d3d                	jal	1cc6 <inspect_room+0x4e>
    1e8a:	5220                	lw	s0,96(a2)
    1e8c:	5349                	li	t1,-14
    1e8e:	20562d43          	fmadd.s	fs10,fa2,ft5,ft4,rdn
    1e92:	6f42                	flw	ft10,16(sp)
    1e94:	552d746f          	jal	s0,d93e6 <__global_pointer+0xd6cfe>
    1e98:	2070                	fld	fa2,192(s0)
    1e9a:	7250                	flw	fa2,36(a2)
    1e9c:	7365636f          	jal	t1,585d2 <__global_pointer+0x55eea>
    1ea0:	6f4e2073          	csrs	0x6f4,t3
    1ea4:	6f432077          	0x6f432077
    1ea8:	706d                	c.lui	zero,0xffffb
    1eaa:	656c                	flw	fa1,76(a0)
    1eac:	6574                	flw	fa3,76(a0)
    1eae:	3d20                	fld	fs0,120(a0)
    1eb0:	3d3d                	jal	1cee <inspect_room+0x76>
    1eb2:	3d3d                	jal	1cf0 <inspect_room+0x78>
    1eb4:	0a3d                	addi	s4,s4,15
    1eb6:	3d3d                	jal	1cf4 <inspect_room+0x7c>
    1eb8:	3d3d                	jal	1cf6 <inspect_room+0x7e>
    1eba:	3d3d                	jal	1cf8 <inspect_room+0x80>
    1ebc:	3d3d                	jal	1cfa <inspect_room+0x82>
    1ebe:	3d3d                	jal	1cfc <inspect_room+0x84>
    1ec0:	3d3d                	jal	1cfe <inspect_room+0x86>
    1ec2:	3d3d                	jal	1d00 <inspect_room+0x88>
    1ec4:	3d3d                	jal	1d02 <inspect_room+0x8a>
    1ec6:	3d3d                	jal	1d04 <inspect_room+0x8c>
    1ec8:	3d3d                	jal	1d06 <inspect_room+0x8e>
    1eca:	3d3d                	jal	1d08 <inspect_room+0x90>
    1ecc:	3d3d                	jal	1d0a <inspect_room+0x92>
    1ece:	3d3d                	jal	1d0c <inspect_room+0x94>
    1ed0:	3d3d                	jal	1d0e <inspect_room+0x96>
    1ed2:	3d3d                	jal	1d10 <inspect_room+0x98>
    1ed4:	3d3d                	jal	1d12 <inspect_room+0x9a>
    1ed6:	3d3d                	jal	1d14 <updateTimer>
    1ed8:	3d3d                	jal	1d16 <updateTimer+0x2>
    1eda:	3d3d                	jal	1d18 <updateTimer+0x4>
    1edc:	3d3d                	jal	1d1a <updateTimer+0x6>
    1ede:	3d3d                	jal	1d1c <updateTimer+0x8>
    1ee0:	3d3d                	jal	1d1e <updateTimer+0xa>
    1ee2:	3d3d                	jal	1d20 <updateTimer+0xc>
    1ee4:	3d3d                	jal	1d22 <updateTimer+0xe>
    1ee6:	000a                	c.slli	zero,0x2

00001ee8 <seed>:
    1ee8:	cd15                	beqz	a0,1f24 <state+0x38>
    1eea:	          	0x75b

Disassembly of section .bss:

00001eec <state>:
	...

00001f6c <room1>:
	...

00001f80 <room2>:
	...

00001f94 <room9>:
	...

00001fa8 <room3>:
	...

00001fbc <room4>:
	...

00001fd0 <room5>:
	...

00001fe4 <room6>:
	...

00001ff8 <room7>:
	...

0000200c <room8>:
	...

Disassembly of section .sbss:

00002020 <boss_timer>:
    2020:	0000                	unimp
	...

00002024 <debounce_counter>:
    2024:	0000                	unimp
	...

00002028 <tick_count>:
    2028:	0000                	unimp
	...

Disassembly of section .rodata:

0000202c <SEGMENT_CODES-0x50>:
    202c:	18d0                	addi	a2,sp,116
    202e:	0000                	unimp
    2030:	16d4                	addi	a3,sp,868
    2032:	0000                	unimp
    2034:	1714                	addi	a3,sp,928
    2036:	0000                	unimp
    2038:	1760                	addi	s0,sp,940
    203a:	0000                	unimp
    203c:	17d0                	addi	a2,sp,996
    203e:	0000                	unimp
    2040:	17ac                	addi	a1,sp,1000
    2042:	0000                	unimp
    2044:	1848                	addi	a0,sp,52
    2046:	0000                	unimp
    2048:	1814                	addi	a3,sp,48
    204a:	0000                	unimp
    204c:	1898                	addi	a4,sp,112
    204e:	0000                	unimp
    2050:	16a0                	addi	s0,sp,872
    2052:	0000                	unimp
    2054:	1d08                	addi	a0,sp,688
    2056:	0000                	unimp
    2058:	1ca8                	addi	a0,sp,632
    205a:	0000                	unimp
    205c:	1cb4                	addi	a3,sp,632
    205e:	0000                	unimp
    2060:	1cc0                	addi	s0,sp,628
    2062:	0000                	unimp
    2064:	1ccc                	addi	a1,sp,628
    2066:	0000                	unimp
    2068:	1cd8                	addi	a4,sp,628
    206a:	0000                	unimp
    206c:	1ce4                	addi	s1,sp,636
    206e:	0000                	unimp
    2070:	1cf0                	addi	a2,sp,636
    2072:	0000                	unimp
    2074:	1cfc                	addi	a5,sp,636
    2076:	0000                	unimp
    2078:	1c9c                	addi	a5,sp,624
	...

0000207c <SEGMENT_CODES>:
    207c:	00c0                	addi	s0,sp,68
    207e:	0000                	unimp
    2080:	00f9                	addi	ra,ra,30
    2082:	0000                	unimp
    2084:	00a4                	addi	s1,sp,72
    2086:	0000                	unimp
    2088:	00b0                	addi	a2,sp,72
    208a:	0000                	unimp
    208c:	0099                	addi	ra,ra,6
    208e:	0000                	unimp
    2090:	0092                	slli	ra,ra,0x4
    2092:	0000                	unimp
    2094:	0082                	c.slli64	ra
    2096:	0000                	unimp
    2098:	00f8                	addi	a4,sp,76
    209a:	0000                	unimp
    209c:	0080                	addi	s0,sp,64
    209e:	0000                	unimp
    20a0:	0090                	addi	a2,sp,64
	...

Disassembly of section .rodata.str1.4:

000020a4 <.rodata.str1.4>:
    20a4:	6f42                	flw	ft10,16(sp)
    20a6:	61207373          	csrrci	t1,0x612,0
    20aa:	7474                	flw	fa3,108(s0)
    20ac:	6361                	lui	t1,0x18
    20ae:	6620736b          	0x6620736b
    20b2:	0020726f          	jal	tp,90b4 <__global_pointer+0x69cc>
    20b6:	0000                	unimp
    20b8:	6420                	flw	fs0,72(s0)
    20ba:	6d61                	lui	s10,0x18
    20bc:	6761                	lui	a4,0x18
    20be:	2165                	jal	2566 <SEGMENT_CODES+0x4ea>
    20c0:	0a0a                	slli	s4,s4,0x2
    20c2:	0000                	unimp
    20c4:	6f59                	lui	t5,0x16
    20c6:	7275                	lui	tp,0xffffd
    20c8:	4820                	lw	s0,80(s0)
    20ca:	3a50                	fld	fa2,176(a2)
    20cc:	0020                	addi	s0,sp,8
    20ce:	0000                	unimp
    20d0:	6854                	flw	fa3,20(s0)
    20d2:	2065                	jal	217a <SEGMENT_CODES+0xfe>
    20d4:	6f62                	flw	ft10,24(sp)
    20d6:	68207373          	csrrci	t1,0x682,0
    20da:	6165                	addi	sp,sp,112
    20dc:	736c                	flw	fa1,100(a4)
    20de:	6920                	flw	fs0,80(a0)
    20e0:	7374                	flw	fa3,100(a4)
    20e2:	7720                	flw	fs0,104(a4)
    20e4:	646e756f          	jal	a0,e972a <__global_pointer+0xe7042>
    20e8:	49202173          	csrr	sp,0x492
    20ec:	2074                	fld	fa3,192(s0)
    20ee:	6572                	flw	fa0,28(sp)
    20f0:	6e696167          	0x6e696167
    20f4:	30312073          	csrs	mideleg,sp
    20f8:	4820                	lw	s0,80(s0)
    20fa:	2150                	fld	fa2,128(a0)
    20fc:	0a0a                	slli	s4,s4,0x2
    20fe:	0000                	unimp
    2100:	6f42                	flw	ft10,16(sp)
    2102:	48207373          	csrrci	t1,0x482,0
    2106:	3a50                	fld	fa2,176(a2)
    2108:	0020                	addi	s0,sp,8
    210a:	0000                	unimp
    210c:	5b0a                	lw	s6,160(sp)
    210e:	5845                	li	a6,-15
    2110:	54504543          	fmadd.h	fa0,ft0,ft5,fa0,rmm
    2114:	4f49                	li	t5,18
    2116:	5d4e                	lw	s10,240(sp)
    2118:	4920                	lw	s0,80(a0)
    211a:	736e                	flw	ft6,248(sp)
    211c:	7274                	flw	fa3,100(a2)
    211e:	6375                	lui	t1,0x1d
    2120:	6974                	flw	fa3,84(a0)
    2122:	61206e6f          	jal	t3,8734 <__global_pointer+0x604c>
    2126:	6464                	flw	fs1,76(s0)
    2128:	6572                	flw	fa0,28(sp)
    212a:	6d207373          	csrrci	t1,0x6d2,0
    212e:	7369                	lui	t1,0xffffa
    2130:	6c61                	lui	s8,0x18
    2132:	6769                	lui	a4,0x1a
    2134:	6d6e                	flw	fs10,216(sp)
    2136:	6e65                	lui	t3,0x19
    2138:	2e74                	fld	fa3,216(a2)
    213a:	0020                	addi	s0,sp,8
    213c:	5b0a                	lw	s6,160(sp)
    213e:	5845                	li	a6,-15
    2140:	54504543          	fmadd.h	fa0,ft0,ft5,fa0,rmm
    2144:	4f49                	li	t5,18
    2146:	5d4e                	lw	s10,240(sp)
    2148:	4920                	lw	s0,80(a0)
    214a:	6c6c                	flw	fa1,92(s0)
    214c:	6765                	lui	a4,0x19
    214e:	6c61                	lui	s8,0x18
    2150:	6920                	flw	fs0,80(a0)
    2152:	736e                	flw	ft6,248(sp)
    2154:	7274                	flw	fa3,100(a2)
    2156:	6375                	lui	t1,0x1d
    2158:	6974                	flw	fa3,84(a0)
    215a:	202e6e6f          	jal	t3,e835c <__global_pointer+0xe5c74>
    215e:	0000                	unimp
    2160:	5b0a                	lw	s6,160(sp)
    2162:	5845                	li	a6,-15
    2164:	54504543          	fmadd.h	fa0,ft0,ft5,fa0,rmm
    2168:	4f49                	li	t5,18
    216a:	5d4e                	lw	s10,240(sp)
    216c:	5520                	lw	s0,104(a0)
    216e:	6b6e                	flw	fs6,216(sp)
    2170:	6f6e                	flw	ft10,216(sp)
    2172:	65206e77          	0x65206e77
    2176:	7272                	flw	ft4,60(sp)
    2178:	202e726f          	jal	tp,e937a <__global_pointer+0xe6c92>
    217c:	0000                	unimp
    217e:	0000                	unimp
    2180:	7845                	lui	a6,0xffff1
    2182:	74706563          	bltu	zero,t2,28cc <__global_pointer+0x1e4>
    2186:	6f69                	lui	t5,0x1a
    2188:	206e                	fld	ft0,216(sp)
    218a:	6441                	lui	s0,0x10
    218c:	7264                	flw	fs1,100(a2)
    218e:	7365                	lui	t1,0xffff9
    2190:	00203a73          	csrrc	s4,frm,zero
    2194:	2d2d                	jal	27ce <__global_pointer+0xe6>
    2196:	2d2d                	jal	27d0 <__global_pointer+0xe8>
    2198:	2d2d                	jal	27d2 <__global_pointer+0xea>
    219a:	2d2d                	jal	27d4 <__global_pointer+0xec>
    219c:	2d2d                	jal	27d6 <__global_pointer+0xee>
    219e:	2d2d                	jal	27d8 <__global_pointer+0xf0>
    21a0:	2d2d                	jal	27da <__global_pointer+0xf2>
    21a2:	2d2d                	jal	27dc <__global_pointer+0xf4>
    21a4:	2d2d                	jal	27de <__global_pointer+0xf6>
    21a6:	2d2d                	jal	27e0 <__global_pointer+0xf8>
    21a8:	2d2d                	jal	27e2 <__global_pointer+0xfa>
    21aa:	2d2d                	jal	27e4 <__global_pointer+0xfc>
    21ac:	2d2d                	jal	27e6 <__global_pointer+0xfe>
    21ae:	2d2d                	jal	27e8 <__global_pointer+0x100>
    21b0:	2d2d                	jal	27ea <__global_pointer+0x102>
    21b2:	2d2d                	jal	27ec <__global_pointer+0x104>
    21b4:	2d2d                	jal	27ee <__global_pointer+0x106>
    21b6:	2d2d                	jal	27f0 <__global_pointer+0x108>
    21b8:	2d2d                	jal	27f2 <__global_pointer+0x10a>
    21ba:	2d2d                	jal	27f4 <__global_pointer+0x10c>
    21bc:	2d2d                	jal	27f6 <__global_pointer+0x10e>
    21be:	2d2d                	jal	27f8 <__global_pointer+0x110>
    21c0:	2d2d                	jal	27fa <__global_pointer+0x112>
    21c2:	2d2d                	jal	27fc <__global_pointer+0x114>
    21c4:	2d2d                	jal	27fe <__global_pointer+0x116>
    21c6:	2d2d                	jal	2800 <__global_pointer+0x118>
    21c8:	2d2d                	jal	2802 <__global_pointer+0x11a>
    21ca:	2d2d                	jal	2804 <__global_pointer+0x11c>
    21cc:	2d2d                	jal	2806 <__global_pointer+0x11e>
    21ce:	2d2d                	jal	2808 <__global_pointer+0x120>
    21d0:	2d2d                	jal	280a <__global_pointer+0x122>
    21d2:	2d2d                	jal	280c <__global_pointer+0x124>
    21d4:	0a0a                	slli	s4,s4,0x2
    21d6:	0000                	unimp
    21d8:	2e31                	jal	24f4 <SEGMENT_CODES+0x478>
    21da:	4e20                	lw	s0,88(a2)
    21dc:	7865                	lui	a6,0xffff9
    21de:	2074                	fld	fa3,192(s0)
    21e0:	6f52                	flw	ft10,20(sp)
    21e2:	7c206d6f          	jal	s10,89a4 <__global_pointer+0x62bc>
    21e6:	0020                	addi	s0,sp,8
    21e8:	2e32                	fld	ft8,264(sp)
    21ea:	5020                	lw	s0,96(s0)
    21ec:	6572                	flw	fa0,28(sp)
    21ee:	6976                	flw	fs2,92(sp)
    21f0:	2073756f          	jal	a0,39bf6 <__global_pointer+0x3750e>
    21f4:	6f52                	flw	ft10,20(sp)
    21f6:	7c206d6f          	jal	s10,89b8 <__global_pointer+0x62d0>
    21fa:	0020                	addi	s0,sp,8
    21fc:	53202e33          	0x53202e33
    2200:	65766c6f          	jal	s8,69056 <__global_pointer+0x6696e>
    2204:	5020                	lw	s0,96(s0)
    2206:	7a75                	lui	s4,0xffffd
    2208:	6c7a                	flw	fs8,156(sp)
    220a:	2065                	jal	22b2 <SEGMENT_CODES+0x236>
    220c:	207c                	fld	fa5,192(s0)
    220e:	0000                	unimp
    2210:	2e34                	fld	fa3,88(a2)
    2212:	4920                	lw	s0,80(a0)
    2214:	736e                	flw	ft6,248(sp)
    2216:	6570                	flw	fa2,76(a0)
    2218:	52207463          	bgeu	zero,sp,2740 <__global_pointer+0x58>
    221c:	206d6f6f          	jal	t5,d8422 <__global_pointer+0xd5d3a>
    2220:	0a0a                	slli	s4,s4,0x2
    2222:	0000                	unimp
    2224:	6f6f6843          	fmadd.q	fa6,ft10,fs6,fa3,unknown
    2228:	79206573          	csrrsi	a0,0x792,0
    222c:	2072756f          	jal	a0,29c32 <__global_pointer+0x2754a>
    2230:	6361                	lui	t1,0x18
    2232:	6974                	flw	fa3,84(a0)
    2234:	3a216e6f          	jal	t3,185d6 <__global_pointer+0x15eee>
    2238:	0a20                	addi	s0,sp,280
    223a:	0000                	unimp
    223c:	2e31                	jal	2558 <SEGMENT_CODES+0x4dc>
    223e:	4120                	lw	s0,64(a0)
    2240:	7474                	flw	fa3,108(s0)
    2242:	6361                	lui	t1,0x18
    2244:	207c206b          	0x207c206b
    2248:	2e32                	fld	ft8,264(sp)
    224a:	4420                	lw	s0,72(s0)
    224c:	6665                	lui	a2,0x19
    224e:	6e65                	lui	t3,0x19
    2250:	2064                	fld	fs1,192(s0)
    2252:	0a0a                	slli	s4,s4,0x2
    2254:	0000                	unimp
    2256:	0000                	unimp
    2258:	6f59                	lui	t5,0x16
    225a:	2075                	jal	2306 <SEGMENT_CODES+0x28a>
    225c:	7461                	lui	s0,0xffff8
    225e:	6174                	flw	fa3,68(a0)
    2260:	74206b63          	bltu	zero,sp,29b6 <__global_pointer+0x2ce>
    2264:	6568                	flw	fa0,76(a0)
    2266:	4220                	lw	s0,64(a2)
    2268:	2073736f          	jal	t1,39c6e <__global_pointer+0x37586>
    226c:	6f66                	flw	ft10,88(sp)
    226e:	2072                	fld	ft0,280(sp)
    2270:	0000                	unimp
    2272:	0000                	unimp
    2274:	6420                	flw	fs0,72(s0)
    2276:	6d61                	lui	s10,0x18
    2278:	6761                	lui	a4,0x18
    227a:	2165                	jal	2722 <__global_pointer+0x3a>
    227c:	000a                	c.slli	zero,0x2
    227e:	0000                	unimp
    2280:	6f59                	lui	t5,0x16
    2282:	2075                	jal	232e <SEGMENT_CODES+0x2b2>
    2284:	7262                	flw	ft4,56(sp)
    2286:	6361                	lui	t1,0x18
    2288:	2065                	jal	2330 <SEGMENT_CODES+0x2b4>
    228a:	6f79                	lui	t5,0x1e
    228c:	7275                	lui	tp,0xffffd
    228e:	666c6573          	csrrsi	a0,0x666,24
    2292:	202c                	fld	fa1,64(s0)
    2294:	6e69                	lui	t3,0x1a
    2296:	696d6f63          	bltu	s10,s6,2934 <__global_pointer+0x24c>
    229a:	676e                	flw	fa4,216(sp)
    229c:	6420                	flw	fs0,72(s0)
    229e:	6d61                	lui	s10,0x18
    22a0:	6761                	lui	a4,0x18
    22a2:	2065                	jal	234a <SEGMENT_CODES+0x2ce>
    22a4:	6572                	flw	fa0,28(sp)
    22a6:	7564                	flw	fs1,108(a0)
    22a8:	20646563          	bltu	s0,t1,24b2 <SEGMENT_CODES+0x436>
    22ac:	6570                	flw	fa2,76(a0)
    22ae:	6d72                	flw	fs10,28(sp)
    22b0:	6e61                	lui	t3,0x18
    22b2:	6e61                	lui	t3,0x18
    22b4:	6574                	flw	fa3,76(a0)
    22b6:	796c                	flw	fa1,116(a0)
    22b8:	0a21                	addi	s4,s4,8
    22ba:	000a                	c.slli	zero,0x2
    22bc:	4420312b          	0x4420312b
    22c0:	4645                	li	a2,17
    22c2:	0a0a                	slli	s4,s4,0x2
    22c4:	0000                	unimp
    22c6:	0000                	unimp
    22c8:	6e49                	lui	t3,0x12
    22ca:	6176                	flw	ft2,92(sp)
    22cc:	696c                	flw	fa1,84(a0)
    22ce:	2064                	fld	fs1,192(s0)
    22d0:	6361                	lui	t1,0x18
    22d2:	6974                	flw	fa3,84(a0)
    22d4:	0a2e6e6f          	jal	t3,e8376 <__global_pointer+0xe5c8e>
    22d8:	000a                	c.slli	zero,0x2
    22da:	0000                	unimp
    22dc:	2d2d                	jal	2916 <__global_pointer+0x22e>
    22de:	2d2d                	jal	2918 <__global_pointer+0x230>
    22e0:	2d2d                	jal	291a <__global_pointer+0x232>
    22e2:	2d2d                	jal	291c <__global_pointer+0x234>
    22e4:	2d2d                	jal	291e <__global_pointer+0x236>
    22e6:	2d2d                	jal	2920 <__global_pointer+0x238>
    22e8:	2d2d                	jal	2922 <__global_pointer+0x23a>
    22ea:	2d2d                	jal	2924 <__global_pointer+0x23c>
    22ec:	4f42                	lw	t5,16(sp)
    22ee:	54205353          	0x54205353
    22f2:	5255                	li	tp,-11
    22f4:	2d4e                	fld	fs10,208(sp)
    22f6:	2d2d                	jal	2930 <__global_pointer+0x248>
    22f8:	2d2d                	jal	2932 <__global_pointer+0x24a>
    22fa:	2d2d                	jal	2934 <__global_pointer+0x24c>
    22fc:	2d2d                	jal	2936 <__global_pointer+0x24e>
    22fe:	2d2d                	jal	2938 <__global_pointer+0x250>
    2300:	2d2d                	jal	293a <__global_pointer+0x252>
    2302:	2d2d                	jal	293c <__global_pointer+0x254>
    2304:	0a2d                	addi	s4,s4,11
    2306:	000a                	c.slli	zero,0x2
    2308:	6f59                	lui	t5,0x16
    230a:	2075                	jal	23b6 <SEGMENT_CODES+0x33a>
    230c:	6168                	flw	fa0,68(a0)
    230e:	6576                	flw	fa0,92(sp)
    2310:	6420                	flw	fs0,72(s0)
    2312:	6665                	lui	a2,0x19
    2314:	6165                	addi	sp,sp,112
    2316:	6574                	flw	fa3,76(a0)
    2318:	2064                	fld	fs1,192(s0)
    231a:	6874                	flw	fa3,84(s0)
    231c:	2065                	jal	23c4 <SEGMENT_CODES+0x348>
    231e:	6f42                	flw	ft10,16(sp)
    2320:	20217373          	csrrci	t1,0x202,2
    2324:	676e6f43          	fmadd.q	ft10,ft8,fs6,fa2,unknown
    2328:	6172                	flw	ft2,28(sp)
    232a:	7574                	flw	fa3,108(a0)
    232c:	616c                	flw	fa1,68(a0)
    232e:	6974                	flw	fa3,84(a0)
    2330:	20736e6f          	jal	t3,38d36 <__global_pointer+0x3664e>
    2334:	79206e6f          	jal	t3,8ac6 <__global_pointer+0x63de>
    2338:	2072756f          	jal	a0,29d3e <__global_pointer+0x27656>
    233c:	6976                	flw	fs2,92(sp)
    233e:	726f7463          	bgeu	t5,t1,2a66 <__global_pointer+0x37e>
    2342:	2179                	jal	27d0 <__global_pointer+0xe8>
    2344:	0a0a                	slli	s4,s4,0x2
    2346:	0000                	unimp
    2348:	6f59                	lui	t5,0x16
    234a:	2775                	jal	2af6 <__global_pointer+0x40e>
    234c:	6576                	flw	fa0,92(sp)
    234e:	6220                	flw	fs0,64(a2)
    2350:	6565                	lui	a0,0x19
    2352:	206e                	fld	ft0,216(sp)
    2354:	6564                	flw	fs1,76(a0)
    2356:	6566                	flw	fa0,88(sp)
    2358:	7461                	lui	s0,0xffff8
    235a:	6465                	lui	s0,0x19
    235c:	2e2e                	fld	ft8,200(sp)
    235e:	0a2e                	slli	s4,s4,0xb
    2360:	000a                	c.slli	zero,0x2
    2362:	0000                	unimp
    2364:	2d2d                	jal	299e <__global_pointer+0x2b6>
    2366:	2d2d                	jal	29a0 <__global_pointer+0x2b8>
    2368:	2d2d                	jal	29a2 <__global_pointer+0x2ba>
    236a:	2d2d                	jal	29a4 <__global_pointer+0x2bc>
    236c:	2d2d                	jal	29a6 <__global_pointer+0x2be>
    236e:	2d2d                	jal	29a8 <__global_pointer+0x2c0>
    2370:	2d2d                	jal	29aa <__global_pointer+0x2c2>
    2372:	2d2d                	jal	29ac <__global_pointer+0x2c4>
    2374:	454d4147          	fmsub.h	ft2,fs10,fs4,fs0,rmm
    2378:	4f20                	lw	s0,88(a4)
    237a:	4556                	lw	a0,84(sp)
    237c:	2d52                	fld	fs10,272(sp)
    237e:	2d2d                	jal	29b8 <__global_pointer+0x2d0>
    2380:	2d2d                	jal	29ba <__global_pointer+0x2d2>
    2382:	2d2d                	jal	29bc <__global_pointer+0x2d4>
    2384:	2d2d                	jal	29be <__global_pointer+0x2d6>
    2386:	2d2d                	jal	29c0 <__global_pointer+0x2d8>
    2388:	2d2d                	jal	29c2 <__global_pointer+0x2da>
    238a:	2d2d                	jal	29c4 <__global_pointer+0x2dc>
    238c:	0a2d                	addi	s4,s4,11
    238e:	000a                	c.slli	zero,0x2
    2390:	7250                	flw	fa2,36(a2)
    2392:	7365                	lui	t1,0xffff9
    2394:	6f742073          	csrs	0x6f7,s0
    2398:	7320                	flw	fs0,96(a4)
    239a:	6174                	flw	fa3,68(a0)
    239c:	7472                	flw	fs0,60(sp)
    239e:	7420                	flw	fs0,104(s0)
    23a0:	6568                	flw	fa0,76(a0)
    23a2:	6720                	flw	fs0,72(a4)
    23a4:	6d61                	lui	s10,0x18
    23a6:	2165                	jal	284e <__global_pointer+0x166>
    23a8:	0a0a                	slli	s4,s4,0x2
    23aa:	0000                	unimp
    23ac:	6f59                	lui	t5,0x16
    23ae:	2075                	jal	245a <SEGMENT_CODES+0x3de>
    23b0:	6168                	flw	fa0,68(a0)
    23b2:	6576                	flw	fa0,92(sp)
    23b4:	6220                	flw	fs0,64(a2)
    23b6:	6565                	lui	a0,0x19
    23b8:	206e                	fld	ft0,216(sp)
    23ba:	7461                	lui	s0,0xffff8
    23bc:	6174                	flw	fa3,68(a0)
    23be:	64656b63          	bltu	a0,t1,2a14 <__global_pointer+0x32c>
    23c2:	2021                	jal	23ca <SEGMENT_CODES+0x34e>
    23c4:	6e45                	lui	t3,0x11
    23c6:	6574                	flw	fa3,76(a0)
    23c8:	6972                	flw	fs2,28(sp)
    23ca:	676e                	flw	fa4,216(sp)
    23cc:	6220                	flw	fs0,64(a2)
    23ce:	7461                	lui	s0,0xffff8
    23d0:	6c74                	flw	fa3,92(s0)
    23d2:	2065                	jal	247a <SEGMENT_CODES+0x3fe>
    23d4:	6f6d                	lui	t5,0x1b
    23d6:	6564                	flw	fs1,76(a0)
    23d8:	2e2e                	fld	ft8,200(sp)
    23da:	0a2e                	slli	s4,s4,0xb
    23dc:	000a                	c.slli	zero,0x2
    23de:	0000                	unimp
    23e0:	656d6147          	fmsub.h	ft2,fs10,fs6,fa2,unknown
    23e4:	4f20                	lw	s0,88(a4)
    23e6:	6576                	flw	fa0,92(sp)
    23e8:	2172                	fld	ft2,280(sp)
    23ea:	5420                	lw	s0,104(s0)
    23ec:	6d69                	lui	s10,0x1a
    23ee:	2765                	jal	2b96 <__global_pointer+0x4ae>
    23f0:	70752073          	csrs	0x707,a0
    23f4:	0a2e                	slli	s4,s4,0xb
    23f6:	0000                	unimp
    23f8:	6f59                	lui	t5,0x16
    23fa:	2075                	jal	24a6 <SEGMENT_CODES+0x42a>
    23fc:	6568                	flw	fa0,76(a0)
    23fe:	7261                	lui	tp,0xffff8
    2400:	6820                	flw	fs0,80(s0)
    2402:	6165                	addi	sp,sp,112
    2404:	7976                	flw	fs2,124(sp)
    2406:	6620                	flw	fs0,72(a2)
    2408:	73746f6f          	jal	t5,4933e <__global_pointer+0x46c56>
    240c:	6574                	flw	fa3,76(a0)
    240e:	7370                	flw	fa2,100(a4)
    2410:	6e20                	flw	fs0,88(a2)
    2412:	6165                	addi	sp,sp,112
    2414:	6272                	flw	ft4,28(sp)
    2416:	2e79                	jal	27b4 <__global_pointer+0xcc>
    2418:	2e2e                	fld	ft8,200(sp)
    241a:	000a                	c.slli	zero,0x2
    241c:	6f59                	lui	t5,0x16
    241e:	2775                	jal	2bca <__global_pointer+0x4e2>
    2420:	6576                	flw	fa0,92(sp)
    2422:	7320                	flw	fs0,96(a4)
    2424:	65766c6f          	jal	s8,6927a <__global_pointer+0x66b92>
    2428:	2064                	fld	fs1,192(s0)
    242a:	6874                	flw	fa3,84(s0)
    242c:	2065                	jal	24d4 <SEGMENT_CODES+0x458>
    242e:	7570                	flw	fa2,108(a0)
    2430:	7a7a                	flw	fs4,188(sp)
    2432:	656c                	flw	fa1,76(a0)
    2434:	0a21                	addi	s4,s4,8
    2436:	0000                	unimp
    2438:	2030312b          	0x2030312b
    243c:	5048                	lw	a0,36(s0)
    243e:	2021                	jal	2446 <SEGMENT_CODES+0x3ca>
    2440:	0a0a                	slli	s4,s4,0x2
    2442:	0000                	unimp
    2444:	4420352b          	0x4420352b
    2448:	474d                	li	a4,19
    244a:	0a20                	addi	s0,sp,280
    244c:	000a                	c.slli	zero,0x2
    244e:	0000                	unimp
    2450:	4420322b          	0x4420322b
    2454:	4645                	li	a2,17
    2456:	0a20                	addi	s0,sp,280
    2458:	000a                	c.slli	zero,0x2
    245a:	0000                	unimp
    245c:	6f59                	lui	t5,0x16
    245e:	2075                	jal	250a <SEGMENT_CODES+0x48e>
    2460:	6966                	flw	fs2,88(sp)
    2462:	646e                	flw	fs0,216(sp)
    2464:	7420                	flw	fs0,104(s0)
    2466:	7268                	flw	fa0,100(a2)
    2468:	6565                	lui	a0,0x19
    246a:	6f20                	flw	fs0,88(a4)
    246c:	6464                	flw	fs1,76(s0)
    246e:	6c20                	flw	fs0,88(s0)
    2470:	696b6f6f          	jal	t5,b8b06 <__global_pointer+0xb641e>
    2474:	676e                	flw	fa4,216(sp)
    2476:	7720                	flw	fs0,104(a4)
    2478:	6c61                	lui	s8,0x18
    247a:	206c                	fld	fa1,192(s0)
    247c:	6974                	flw	fa3,84(a0)
    247e:	656c                	flw	fa1,76(a0)
    2480:	74202c73          	csrr	s8,0x742
    2484:	6568                	flw	fa0,76(a0)
    2486:	7420                	flw	fs0,104(s0)
    2488:	6968                	flw	fa0,84(a0)
    248a:	6472                	flw	fs0,28(sp)
    248c:	6f20                	flw	fs0,88(a4)
    248e:	656e                	flw	fa0,216(sp)
    2490:	7320                	flw	fs0,96(a4)
    2492:	6565                	lui	a0,0x19
    2494:	736d                	lui	t1,0xffffb
    2496:	7420                	flw	fs0,104(s0)
    2498:	6562206f          	j	24aee <__global_pointer+0x22406>
    249c:	6d20                	flw	fs0,88(a0)
    249e:	2065726f          	jal	tp,596a4 <__global_pointer+0x56fbc>
    24a2:	6f6c                	flw	fa1,92(a4)
    24a4:	2065736f          	jal	t1,596aa <__global_pointer+0x56fc2>
    24a8:	6874                	flw	fa3,84(s0)
    24aa:	6e65                	lui	t3,0x19
    24ac:	7420                	flw	fs0,104(s0)
    24ae:	6568                	flw	fa0,76(a0)
    24b0:	6f20                	flw	fs0,88(a4)
    24b2:	6874                	flw	fa3,84(s0)
    24b4:	7265                	lui	tp,0xffff9
    24b6:	7420                	flw	fs0,104(s0)
    24b8:	0a2e6f77          	0xa2e6f77
    24bc:	000a                	c.slli	zero,0x2
    24be:	0000                	unimp
    24c0:	63696857          	0x63696857
    24c4:	2068                	fld	fa0,192(s0)
    24c6:	6974                	flw	fa3,84(a0)
    24c8:	656c                	flw	fa1,76(a0)
    24ca:	7720                	flw	fs0,104(a4)
    24cc:	6c69                	lui	s8,0x1a
    24ce:	206c                	fld	fa1,192(s0)
    24d0:	6f79                	lui	t5,0x1e
    24d2:	2075                	jal	257e <SEGMENT_CODES+0x502>
    24d4:	6e69                	lui	t3,0x1a
    24d6:	63657073          	csrci	0x636,10
    24da:	3f74                	fld	fa3,248(a4)
    24dc:	0a0a                	slli	s4,s4,0x2
    24de:	0000                	unimp
    24e0:	6854                	flw	fa3,20(s0)
    24e2:	2065                	jal	258a <SEGMENT_CODES+0x50e>
    24e4:	6974                	flw	fa3,84(a0)
    24e6:	656c                	flw	fa1,76(a0)
    24e8:	6420                	flw	fs0,72(s0)
    24ea:	6e73656f          	jal	a0,393d0 <__global_pointer+0x36ce8>
    24ee:	6d207427          	vsoxseg4ei64.v	v8,(zero),v18,v0.t
    24f2:	2c65766f          	jal	a2,597b8 <__global_pointer+0x570d0>
    24f6:	7420                	flw	fs0,104(s0)
    24f8:	7972                	flw	fs2,60(sp)
    24fa:	6920                	flw	fs0,80(a0)
    24fc:	736e                	flw	ft6,248(sp)
    24fe:	6570                	flw	fa2,76(a0)
    2500:	6e697463          	bgeu	s2,t1,2be8 <__global_pointer+0x500>
    2504:	6e612067          	0x6e612067
    2508:	6568746f          	jal	s0,89b5e <__global_pointer+0x87476>
    250c:	2e72                	fld	ft8,280(sp)
    250e:	0a0a                	slli	s4,s4,0x2
    2510:	0000                	unimp
    2512:	0000                	unimp
    2514:	6641                	lui	a2,0x10
    2516:	6574                	flw	fa3,76(a0)
    2518:	2072                	fld	ft0,280(sp)
    251a:	6f6c                	flw	fa1,92(a4)
    251c:	6e696b6f          	jal	s6,98c02 <__global_pointer+0x9651a>
    2520:	72612067          	0x72612067
    2524:	646e756f          	jal	a0,e9b6a <__global_pointer+0xe7482>
    2528:	7420                	flw	fs0,104(s0)
    252a:	6568                	flw	fa0,76(a0)
    252c:	6c20                	flw	fs0,88(s0)
    252e:	6269                	lui	tp,0x1a
    2530:	7261                	lui	tp,0xffff8
    2532:	7261                	lui	tp,0xffff8
    2534:	2079                	jal	25c2 <SEGMENT_CODES+0x546>
    2536:	6f79                	lui	t5,0x1e
    2538:	2075                	jal	25e4 <SEGMENT_CODES+0x568>
    253a:	656d6f63          	bltu	s10,s6,2b98 <__global_pointer+0x4b0>
    253e:	6120                	flw	fs0,64(a0)
    2540:	736f7263          	bgeu	t5,s6,2c64 <__global_pointer+0x57c>
    2544:	20612073          	csrs	0x206,sp
    2548:	6f62                	flw	ft10,24(sp)
    254a:	68736b6f          	jal	s6,393d0 <__global_pointer+0x36ce8>
    254e:	6c65                	lui	s8,0x19
    2550:	2066                	fld	ft0,88(sp)
    2552:	68746977          	0x68746977
    2556:	6620                	flw	fs0,72(a2)
    2558:	7669                	lui	a2,0xffffa
    255a:	2065                	jal	2602 <SEGMENT_CODES+0x586>
    255c:	6f62                	flw	ft10,24(sp)
    255e:	20736b6f          	jal	s6,38f64 <__global_pointer+0x3687c>
    2562:	616c                	flw	fa1,68(a0)
    2564:	6e696b63          	bltu	s2,t1,2c5a <__global_pointer+0x572>
    2568:	6f622067          	0x6f622067
    256c:	6874                	flw	fa3,84(s0)
    256e:	7420                	flw	fs0,104(s0)
    2570:	7469                	lui	s0,0xffffa
    2572:	656c                	flw	fa1,76(a0)
    2574:	6120                	flw	fs0,64(a0)
    2576:	646e                	flw	fs0,216(sp)
    2578:	6120                	flw	fs0,64(a0)
    257a:	7475                	lui	s0,0xffffd
    257c:	6f68                	flw	fa0,92(a4)
    257e:	0a72                	slli	s4,s4,0x1c
    2580:	000a                	c.slli	zero,0x2
    2582:	0000                	unimp
    2584:	6854                	flw	fa3,20(s0)
    2586:	2065                	jal	262e <SEGMENT_CODES+0x5b2>
    2588:	6f636573          	csrrsi	a0,0x6f6,6
    258c:	646e                	flw	fs0,216(sp)
    258e:	6220                	flw	fs0,64(a2)
    2590:	206b6f6f          	jal	t5,b8796 <__global_pointer+0xb60ae>
    2594:	6f6c                	flw	fa1,92(a4)
    2596:	20736b6f          	jal	s6,38f9c <__global_pointer+0x368b4>
    259a:	20646c6f          	jal	s8,487a0 <__global_pointer+0x460b8>
    259e:	6e61                	lui	t3,0x18
    25a0:	2064                	fld	fs1,192(s0)
    25a2:	6f74                	flw	fa3,92(a4)
    25a4:	6e72                	flw	ft8,28(sp)
    25a6:	7520                	flw	fs0,104(a0)
    25a8:	2e70                	fld	fa2,216(a2)
    25aa:	0a0a                	slli	s4,s4,0x2
    25ac:	0000                	unimp
    25ae:	0000                	unimp
    25b0:	63696857          	0x63696857
    25b4:	2068                	fld	fa0,192(s0)
    25b6:	6f62                	flw	ft10,24(sp)
    25b8:	64206b6f          	jal	s6,8bfa <__global_pointer+0x6512>
    25bc:	6f79206f          	j	954b2 <__global_pointer+0x92dca>
    25c0:	2075                	jal	266c <SEGMENT_CODES+0x5f0>
    25c2:	746e6177          	0x746e6177
    25c6:	7420                	flw	fs0,104(s0)
    25c8:	6970206f          	j	545e <__global_pointer+0x2d76>
    25cc:	75206b63          	bltu	zero,s2,2d22 <__global_pointer+0x63a>
    25d0:	2070                	fld	fa2,192(s0)
    25d2:	6e61                	lui	t3,0x18
    25d4:	2064                	fld	fs1,192(s0)
    25d6:	6572                	flw	fa0,28(sp)
    25d8:	6461                	lui	s0,0x18
    25da:	00000a3f 68570000 	0x6857000000000a3f
    25e2:	6e65                	lui	t3,0x19
    25e4:	7920                	flw	fs0,112(a0)
    25e6:	7420756f          	jal	a0,9d28 <__global_pointer+0x7640>
    25ea:	7972                	flw	fs2,60(sp)
    25ec:	7420                	flw	fs0,104(s0)
    25ee:	6174206f          	j	45404 <__global_pointer+0x42d1c>
    25f2:	7420656b          	0x7420656b
    25f6:	6568                	flw	fa0,76(a0)
    25f8:	6220                	flw	fs0,64(a2)
    25fa:	206b6f6f          	jal	t5,b8800 <__global_pointer+0xb6118>
    25fe:	2066666f          	jal	a2,68804 <__global_pointer+0x6611c>
    2602:	6874                	flw	fa3,84(s0)
    2604:	2065                	jal	26ac <SEGMENT_CODES+0x630>
    2606:	6c656873          	csrrsi	a6,0x6c6,10
    260a:	2066                	fld	ft0,88(sp)
    260c:	2061                	jal	2694 <SEGMENT_CODES+0x618>
    260e:	6968                	flw	fa0,84(a0)
    2610:	6464                	flw	fs1,76(s0)
    2612:	6e65                	lui	t3,0x19
    2614:	6320                	flw	fs0,64(a4)
    2616:	61706d6f          	jal	s10,942c <__global_pointer+0x6d44>
    261a:	7472                	flw	fs0,60(sp)
    261c:	656d                	lui	a0,0x1b
    261e:	746e                	flw	fs0,248(sp)
    2620:	6f20                	flw	fs0,88(a4)
    2622:	6570                	flw	fa2,76(a0)
    2624:	736e                	flw	ft6,248(sp)
    2626:	7520                	flw	fs0,104(a0)
    2628:	0a70                	addi	a2,sp,284
    262a:	000a                	c.slli	zero,0x2
    262c:	6f59                	lui	t5,0x16
    262e:	2075                	jal	26da <SEGMENT_CODES+0x65e>
    2630:	6970                	flw	fa2,84(a0)
    2632:	75206b63          	bltu	zero,s2,2d88 <__global_pointer+0x6a0>
    2636:	2070                	fld	fa2,192(s0)
    2638:	6e61                	lui	t3,0x18
    263a:	2064                	fld	fs1,192(s0)
    263c:	6572                	flw	fa0,28(sp)
    263e:	6461                	lui	s0,0x18
    2640:	7420                	flw	fs0,104(s0)
    2642:	6568                	flw	fa0,76(a0)
    2644:	6220                	flw	fs0,64(a2)
    2646:	2c6b6f6f          	jal	t5,b890c <__global_pointer+0xb6224>
    264a:	6920                	flw	fs0,80(a0)
    264c:	2774                	fld	fa3,200(a4)
    264e:	6d652073          	csrs	0x6d6,a0
    2652:	7470                	flw	fa2,108(s0)
    2654:	2e79                	jal	29f2 <__global_pointer+0x30a>
    2656:	2e2e                	fld	ft8,200(sp)
    2658:	0a0a                	slli	s4,s4,0x2
    265a:	0000                	unimp
    265c:	6e49                	lui	t3,0x12
    265e:	7420                	flw	fs0,104(s0)
    2660:	6568                	flw	fa0,76(a0)
    2662:	6120                	flw	fs0,64(a0)
    2664:	6d72                	flw	fs10,28(sp)
    2666:	2079726f          	jal	tp,9a06c <__global_pointer+0x97984>
    266a:	6f79                	lui	t5,0x1e
    266c:	2075                	jal	2718 <__global_pointer+0x30>
    266e:	6966                	flw	fs2,88(sp)
    2670:	646e                	flw	fs0,216(sp)
    2672:	6120                	flw	fs0,64(a0)
    2674:	7020                	flw	fs0,96(s0)
    2676:	6572                	flw	fa0,28(sp)
    2678:	72757373          	csrrci	t1,0x727,10
    267c:	2065                	jal	2724 <__global_pointer+0x3c>
    267e:	6c70                	flw	fa2,92(s0)
    2680:	7461                	lui	s0,0xffff8
    2682:	0a65                	addi	s4,s4,25
    2684:	202c                	fld	fa1,64(s0)
    2686:	6e61                	lui	t3,0x18
    2688:	2064                	fld	fs1,192(s0)
    268a:	656e                	flw	fa0,216(sp)
    268c:	7478                	flw	fa4,108(s0)
    268e:	7420                	flw	fs0,104(s0)
    2690:	7469206f          	j	94dd6 <__global_pointer+0x926ee>
    2694:	7420                	flw	fs0,104(s0)
    2696:	7268                	flw	fa0,100(a2)
    2698:	6565                	lui	a0,0x19
    269a:	6420                	flw	fs0,72(s0)
    269c:	6669                	lui	a2,0x1a
    269e:	6566                	flw	fa0,88(sp)
    26a0:	6572                	flw	fa0,28(sp)
    26a2:	746e                	flw	fs0,248(sp)
    26a4:	6d20                	flw	fs0,88(a0)
    26a6:	7465                	lui	s0,0xffff9
    26a8:	6c61                	lui	s8,0x18
    26aa:	0a0a3a73          	csrrc	s4,0xa0,s4
    26ae:	0000                	unimp
    26b0:	7249                	lui	tp,0xffff2
    26b2:	202c6e6f          	jal	t3,c88b4 <__global_pointer+0xc61cc>
    26b6:	766c6973          	csrrsi	s2,0x766,24
    26ba:	7265                	lui	tp,0xffff9
    26bc:	6120                	flw	fs0,64(a0)
    26be:	646e                	flw	fs0,216(sp)
    26c0:	7320                	flw	fs0,96(a4)
    26c2:	6574                	flw	fa3,76(a0)
    26c4:	6c65                	lui	s8,0x19
    26c6:	0a0a                	slli	s4,s4,0x2
    26c8:	0000                	unimp
    26ca:	0000                	unimp
    26cc:	6854                	flw	fa3,20(s0)
    26ce:	2065                	jal	2776 <__global_pointer+0x8e>
    26d0:	7270                	flw	fa2,100(a2)
    26d2:	7365                	lui	t1,0xffff9
    26d4:	65727573          	csrrci	a0,0x657,4
    26d8:	7020                	flw	fs0,96(s0)
    26da:	616c                	flw	fa1,68(a0)
    26dc:	6574                	flw	fa3,76(a0)
    26de:	6920                	flw	fs0,80(a0)
    26e0:	6e692073          	csrs	0x6e6,s2
    26e4:	69726373          	csrrsi	t1,0x697,4
    26e8:	6562                	flw	fa0,24(sp)
    26ea:	2064                	fld	fs1,192(s0)
    26ec:	68746977          	0x68746977
    26f0:	6120                	flw	fs0,64(a0)
    26f2:	7420                	flw	fs0,104(s0)
    26f4:	7865                	lui	a6,0xffff9
    26f6:	3a74                	fld	fa3,240(a2)
    26f8:	0a0a                	slli	s4,s4,0x2
    26fa:	796c6e4f          	fnmadd.s	ft8,fs8,fs6,fa5,unknown
    26fe:	7420                	flw	fs0,104(s0)
    2700:	6568                	flw	fa0,76(a0)
    2702:	7320                	flw	fs0,96(a4)
    2704:	7274                	flw	fa3,100(a2)
    2706:	65676e6f          	jal	t3,78d5c <__global_pointer+0x76674>
    270a:	6d207473          	csrrci	s0,0x6d2,0
    270e:	7465                	lui	s0,0xffff9
    2710:	6c61                	lui	s8,0x18
    2712:	7720                	flw	fs0,104(a4)
    2714:	6c69                	lui	s8,0x1a
    2716:	206c                	fld	fa1,192(s0)
    2718:	6e617267          	0x6e617267
    271c:	2074                	fld	fa3,192(s0)
    271e:	6f79                	lui	t5,0x1e
    2720:	2075                	jal	27cc <__global_pointer+0xe4>
    2722:	74616877          	0x74616877
    2726:	7920                	flw	fs0,112(a0)
    2728:	7320756f          	jal	a0,9e5a <__global_pointer+0x7772>
    272c:	6565                	lui	a0,0x19
    272e:	000a0a6b          	0xa0a6b
    2732:	0000                	unimp
    2734:	6f59                	lui	t5,0x16
    2736:	2075                	jal	27e2 <__global_pointer+0xfa>
    2738:	7570                	flw	fa2,108(a0)
    273a:	2074                	fld	fa3,192(s0)
    273c:	6874                	flw	fa3,84(s0)
    273e:	2065                	jal	27e6 <__global_pointer+0xfe>
    2740:	65657473          	csrrci	s0,0x656,10
    2744:	206c                	fld	fa1,192(s0)
    2746:	74206e6f          	jal	t3,8e88 <__global_pointer+0x67a0>
    274a:	6568                	flw	fa0,76(a0)
    274c:	7020                	flw	fs0,96(s0)
    274e:	6572                	flw	fa0,28(sp)
    2750:	72757373          	csrrci	t1,0x727,10
    2754:	2065                	jal	27fc <__global_pointer+0x114>
    2756:	6c70                	flw	fa2,92(s0)
    2758:	7461                	lui	s0,0xffff8
    275a:	2e65                	jal	2b12 <__global_pointer+0x42a>
    275c:	2e2e                	fld	ft8,200(sp)
    275e:	0a0a                	slli	s4,s4,0x2
    2760:	0000                	unimp
    2762:	0000                	unimp
    2764:	6854                	flw	fa3,20(s0)
    2766:	2065                	jal	280e <__global_pointer+0x126>
    2768:	656d                	lui	a0,0x1b
    276a:	6174                	flw	fa3,68(a0)
    276c:	206c                	fld	fa1,192(s0)
    276e:	6f64                	flw	fs1,92(a4)
    2770:	7365                	lui	t1,0xffff9
    2772:	276e                	fld	fa4,216(sp)
    2774:	2074                	fld	fa3,192(s0)
    2776:	6d656573          	csrrsi	a0,0x6d6,10
    277a:	7420                	flw	fs0,104(s0)
    277c:	7274206f          	j	456a2 <__global_pointer+0x42fba>
    2780:	6769                	lui	a4,0x1a
    2782:	20726567          	0x20726567
    2786:	6874                	flw	fa3,84(s0)
    2788:	2065                	jal	2830 <__global_pointer+0x148>
    278a:	7270                	flw	fa2,100(a2)
    278c:	7365                	lui	t1,0xffff9
    278e:	65727573          	csrrci	a0,0x657,4
    2792:	7020                	flw	fs0,96(s0)
    2794:	616c                	flw	fa1,68(a0)
    2796:	6574                	flw	fa3,76(a0)
    2798:	2e2e                	fld	ft8,200(sp)
    279a:	0a2e                	slli	s4,s4,0xb
    279c:	000a                	c.slli	zero,0x2
    279e:	0000                	unimp
    27a0:	6e49                	lui	t3,0x12
    27a2:	7420                	flw	fs0,104(s0)
    27a4:	6568                	flw	fa0,76(a0)
    27a6:	4420                	lw	s0,72(s0)
    27a8:	6e69                	lui	t3,0x1a
    27aa:	6e69                	lui	t3,0x1a
    27ac:	61482067          	0x61482067
    27b0:	6c6c                	flw	fa1,92(s0)
    27b2:	7920                	flw	fs0,112(a0)
    27b4:	6620756f          	jal	a0,9e16 <__global_pointer+0x772e>
    27b8:	6e69                	lui	t3,0x1a
    27ba:	2064                	fld	fs1,192(s0)
    27bc:	2061                	jal	2844 <__global_pointer+0x15c>
    27be:	6c70                	flw	fa2,92(s0)
    27c0:	7461                	lui	s0,0xffff8
    27c2:	2065                	jal	286a <__global_pointer+0x182>
    27c4:	7566                	flw	fa0,120(sp)
    27c6:	6c6c                	flw	fa1,92(s0)
    27c8:	6f20                	flw	fs0,88(a4)
    27ca:	2066                	fld	ft0,88(sp)
    27cc:	6564                	flw	fs1,76(a0)
    27ce:	696c                	flw	fa1,84(a0)
    27d0:	756f6963          	bltu	t5,s6,2f22 <__global_pointer+0x83a>
    27d4:	6f662073          	csrs	0x6f6,a2
    27d8:	0a21646f          	jal	s0,1887a <__global_pointer+0x16192>
    27dc:	0000                	unimp
    27de:	0000                	unimp
    27e0:	6c6c6957          	0x6c6c6957
    27e4:	7920                	flw	fs0,112(a0)
    27e6:	6520756f          	jal	a0,9e38 <__global_pointer+0x7750>
    27ea:	7461                	lui	s0,0xffff8
    27ec:	6920                	flw	fs0,80(a0)
    27ee:	3f74                	fld	fa3,248(a4)
    27f0:	2820                	fld	fs0,80(s0)
    27f2:	2031                	jal	27fe <__global_pointer+0x116>
    27f4:	6f74                	flw	fa3,92(a4)
    27f6:	6520                	flw	fs0,72(a0)
    27f8:	7461                	lui	s0,0xffff8
    27fa:	6920                	flw	fs0,80(a0)
    27fc:	2974                	fld	fa3,208(a0)
    27fe:	0a0a                	slli	s4,s4,0x2
    2800:	0000                	unimp
    2802:	0000                	unimp
    2804:	6f59                	lui	t5,0x16
    2806:	2075                	jal	28b2 <__global_pointer+0x1ca>
    2808:	6165                	addi	sp,sp,112
    280a:	2074                	fld	fa3,192(s0)
    280c:	6874                	flw	fa3,84(s0)
    280e:	2065                	jal	28b6 <__global_pointer+0x1ce>
    2810:	6564                	flw	fs1,76(a0)
    2812:	696c                	flw	fa1,84(a0)
    2814:	756f6963          	bltu	t5,s6,2f66 <__global_pointer+0x87e>
    2818:	6f662073          	csrs	0x6f6,a2
    281c:	0a21646f          	jal	s0,188be <__global_pointer+0x161d6>
    2820:	000a                	c.slli	zero,0x2
    2822:	0000                	unimp
    2824:	7241                	lui	tp,0xffff0
    2826:	2065                	jal	28ce <__global_pointer+0x1e6>
    2828:	6f79                	lui	t5,0x1e
    282a:	2075                	jal	28d6 <__global_pointer+0x1ee>
    282c:	6572                	flw	fa0,28(sp)
    282e:	6c61                	lui	s8,0x18
    2830:	796c                	flw	fa1,116(a0)
    2832:	6720                	flw	fs0,72(a4)
    2834:	616e6e6f          	jal	t3,e8e4a <__global_pointer+0xe6762>
    2838:	6c20                	flw	fs0,88(s0)
    283a:	6165                	addi	sp,sp,112
    283c:	6576                	flw	fa0,92(sp)
    283e:	6620                	flw	fs0,72(a2)
    2840:	20646f6f          	jal	t5,48a46 <__global_pointer+0x4635e>
    2844:	74206e6f          	jal	t3,8f86 <__global_pointer+0x689e>
    2848:	6568                	flw	fa0,76(a0)
    284a:	7020                	flw	fs0,96(s0)
    284c:	616c                	flw	fa1,68(a0)
    284e:	6574                	flw	fa3,76(a0)
    2850:	000a0a3f 74206e49 	0x74206e49000a0a3f
    2858:	6568                	flw	fa0,76(a0)
    285a:	6c20                	flw	fs0,88(s0)
    285c:	6261                	lui	tp,0x18
    285e:	7461726f          	jal	tp,19fa4 <__global_pointer+0x178bc>
    2862:	2079726f          	jal	tp,9a268 <__global_pointer+0x97b80>
    2866:	6f79                	lui	t5,0x1e
    2868:	2075                	jal	2914 <__global_pointer+0x22c>
    286a:	6966                	flw	fs2,88(sp)
    286c:	646e                	flw	fs0,216(sp)
    286e:	6620                	flw	fs0,72(a2)
    2870:	7669                	lui	a2,0xffffa
    2872:	2065                	jal	291a <__global_pointer+0x232>
    2874:	6964                	flw	fs1,84(a0)
    2876:	6666                	flw	fa2,88(sp)
    2878:	7265                	lui	tp,0xffff9
    287a:	6e65                	lui	t3,0x19
    287c:	6c74                	flw	fa3,92(s0)
    287e:	2079                	jal	290c <__global_pointer+0x224>
    2880:	616c                	flw	fa1,68(a0)
    2882:	6562                	flw	fa0,24(sp)
    2884:	656c                	flw	fa1,76(a0)
    2886:	2064                	fld	fs1,192(s0)
    2888:	6f70                	flw	fa2,92(a4)
    288a:	6974                	flw	fa3,84(a0)
    288c:	0a736e6f          	jal	t3,39132 <__global_pointer+0x36a4a>
    2890:	0000                	unimp
    2892:	0000                	unimp
    2894:	6854                	flw	fa3,20(s0)
    2896:	2065                	jal	293e <__global_pointer+0x256>
    2898:	6f70                	flw	fa2,92(a4)
    289a:	6974                	flw	fa3,84(a0)
    289c:	69206e6f          	jal	t3,8f2e <__global_pointer+0x6846>
    28a0:	206e                	fld	ft0,216(sp)
    28a2:	6874                	flw	fa3,84(s0)
    28a4:	2065                	jal	294c <__global_pointer+0x264>
    28a6:	696d                	lui	s2,0x1b
    28a8:	6464                	flw	fs1,76(s0)
    28aa:	656c                	flw	fa1,76(a0)
    28ac:	6920                	flw	fs0,80(a0)
    28ae:	616c2073          	csrs	0x616,s8
    28b2:	6562                	flw	fa0,24(sp)
    28b4:	656c                	flw	fa1,76(a0)
    28b6:	2064                	fld	fs1,192(s0)
    28b8:	68746977          	0x68746977
    28bc:	2820                	fld	fs0,80(s0)
    28be:	6f50                	flw	fa2,28(a4)
    28c0:	29726577          	0x29726577
    28c4:	0a2e                	slli	s4,s4,0xb
    28c6:	6854                	flw	fa3,20(s0)
    28c8:	2065                	jal	2970 <__global_pointer+0x288>
    28ca:	6568746f          	jal	s0,89f20 <__global_pointer+0x87838>
    28ce:	2072                	fld	ft0,280(sp)
    28d0:	6f70                	flw	fa2,92(a4)
    28d2:	6974                	flw	fa3,84(a0)
    28d4:	20736e6f          	jal	t3,392da <__global_pointer+0x36bf2>
    28d8:	7261                	lui	tp,0xffff8
    28da:	2065                	jal	2982 <__global_pointer+0x29a>
    28dc:	616c                	flw	fa1,68(a0)
    28de:	6562                	flw	fa0,24(sp)
    28e0:	656c                	flw	fa1,76(a0)
    28e2:	2064                	fld	fs1,192(s0)
    28e4:	68746977          	0x68746977
    28e8:	2820                	fld	fs0,80(s0)
    28ea:	6144                	flw	fs1,4(a0)
    28ec:	676e                	flw	fa4,216(sp)
    28ee:	7265                	lui	tp,0xffff9
    28f0:	0a29                	addi	s4,s4,10
    28f2:	000a                	c.slli	zero,0x2
    28f4:	6f59                	lui	t5,0x16
    28f6:	2075                	jal	29a2 <__global_pointer+0x2ba>
    28f8:	7264                	flw	fs1,100(a2)
    28fa:	6e69                	lui	t3,0x1a
    28fc:	6874206b          	0x6874206b
    2900:	2065                	jal	29a8 <__global_pointer+0x2c0>
    2902:	6f70                	flw	fa2,92(a4)
    2904:	6974                	flw	fa3,84(a0)
    2906:	6c206e6f          	jal	t3,8fc8 <__global_pointer+0x68e0>
    290a:	6261                	lui	tp,0x18
    290c:	6c65                	lui	s8,0x19
    290e:	6465                	lui	s0,0x19
    2910:	7720                	flw	fs0,104(a4)
    2912:	7469                	lui	s0,0xffffa
    2914:	2068                	fld	fa0,192(s0)
    2916:	5028                	lw	a0,96(s0)
    2918:	7265776f          	jal	a4,5a03e <__global_pointer+0x57956>
    291c:	2e29                	jal	2c36 <__global_pointer+0x54e>
    291e:	2e2e                	fld	ft8,200(sp)
    2920:	0a0a                	slli	s4,s4,0x2
    2922:	0000                	unimp
    2924:	6f59                	lui	t5,0x16
    2926:	2075                	jal	29d2 <__global_pointer+0x2ea>
    2928:	7264                	flw	fs1,100(a2)
    292a:	6e69                	lui	t3,0x1a
    292c:	6e6f206b          	0x6e6f206b
    2930:	2065                	jal	29d8 <__global_pointer+0x2f0>
    2932:	7420666f          	jal	a2,9074 <__global_pointer+0x698c>
    2936:	6568                	flw	fa0,76(a0)
    2938:	7020                	flw	fs0,96(s0)
    293a:	6f69746f          	jal	s0,9a030 <__global_pointer+0x97948>
    293e:	736e                	flw	ft6,248(sp)
    2940:	6c20                	flw	fs0,88(s0)
    2942:	6261                	lui	tp,0x18
    2944:	6c65                	lui	s8,0x19
    2946:	6465                	lui	s0,0x19
    2948:	7720                	flw	fs0,104(a4)
    294a:	7469                	lui	s0,0xffffa
    294c:	2068                	fld	fa0,192(s0)
    294e:	4428                	lw	a0,72(s0)
    2950:	6e61                	lui	t3,0x18
    2952:	29726567          	0x29726567
    2956:	2e2e                	fld	ft8,200(sp)
    2958:	0a2e                	slli	s4,s4,0xb
    295a:	000a                	c.slli	zero,0x2
    295c:	6854                	flw	fa3,20(s0)
    295e:	2065                	jal	2a06 <__global_pointer+0x31e>
    2960:	6f70                	flw	fa2,92(a4)
    2962:	6974                	flw	fa3,84(a0)
    2964:	70206e6f          	jal	t3,9066 <__global_pointer+0x697e>
    2968:	7475                	lui	s0,0xffffd
    296a:	6f792073          	csrs	0x6f7,s2
    296e:	2075                	jal	2a1a <__global_pointer+0x332>
    2970:	6f74                	flw	fa3,92(a4)
    2972:	6520                	flw	fs0,72(a0)
    2974:	6574                	flw	fa3,76(a0)
    2976:	6e72                	flw	ft8,28(sp)
    2978:	6c61                	lui	s8,0x18
    297a:	7320                	flw	fs0,96(a4)
    297c:	656c                	flw	fa1,76(a0)
    297e:	7065                	c.lui	zero,0xffff9
    2980:	2e2e                	fld	ft8,200(sp)
    2982:	0a2e                	slli	s4,s4,0xb
    2984:	000a                	c.slli	zero,0x2
    2986:	0000                	unimp
    2988:	6f46                	flw	ft10,80(sp)
    298a:	7275                	lui	tp,0xffffd
    298c:	7320                	flw	fs0,96(a4)
    298e:	6174                	flw	fa3,68(a0)
    2990:	7372                	flw	ft6,60(sp)
    2992:	6220                	flw	fs0,64(a2)
    2994:	696c                	flw	fa1,84(a0)
    2996:	6b6e                	flw	fs6,216(sp)
    2998:	6920                	flw	fs0,80(a0)
    299a:	206e                	fld	ft0,216(sp)
    299c:	6874                	flw	fa3,84(s0)
    299e:	2065                	jal	2a46 <__global_pointer+0x35e>
    29a0:	2e796b73          	csrrsi	s6,0x2e7,18
    29a4:	5420                	lw	s0,104(s0)
    29a6:	6568                	flw	fa0,76(a0)
    29a8:	6620                	flw	fs0,72(a2)
    29aa:	7472756f          	jal	a0,2a8f0 <__global_pointer+0x28208>
    29ae:	2068                	fld	fa0,192(s0)
    29b0:	6e696873          	csrrsi	a6,0x6e6,18
    29b4:	7365                	lui	t1,0xffff9
    29b6:	6220                	flw	fs0,64(a2)
    29b8:	6972                	flw	fs2,28(sp)
    29ba:	65746867          	0x65746867
    29be:	202e7473          	csrrci	s0,0x202,28
    29c2:	63696857          	0x63696857
    29c6:	2068                	fld	fa0,192(s0)
    29c8:	72617473          	csrrci	s0,0x726,2
    29cc:	6420                	flw	fs0,72(s0)
    29ce:	6f79206f          	j	958c4 <__global_pointer+0x931dc>
    29d2:	2075                	jal	2a7e <__global_pointer+0x396>
    29d4:	6c61                	lui	s8,0x18
    29d6:	6769                	lui	a4,0x1a
    29d8:	206e                	fld	ft0,216(sp)
    29da:	6874                	flw	fa3,84(s0)
    29dc:	2065                	jal	2a84 <__global_pointer+0x39c>
    29de:	6574                	flw	fa3,76(a0)
    29e0:	656c                	flw	fa1,76(a0)
    29e2:	706f6373          	csrrsi	t1,0x706,30
    29e6:	2065                	jal	2a8e <__global_pointer+0x3a6>
    29e8:	68746977          	0x68746977
    29ec:	000a0a3f 67696c41 	0x67696c41000a0a3f
    29f4:	696e                	flw	fs2,216(sp)
    29f6:	676e                	flw	fa4,216(sp)
    29f8:	7420                	flw	fs0,104(s0)
    29fa:	6568                	flw	fa0,76(a0)
    29fc:	7420                	flw	fs0,104(s0)
    29fe:	6c65                	lui	s8,0x19
    2a00:	7365                	lui	t1,0xffff9
    2a02:	65706f63          	bltu	zero,s7,3060 <__global_pointer+0x978>
    2a06:	7720                	flw	fs0,104(a4)
    2a08:	7469                	lui	s0,0xffffa
    2a0a:	2068                	fld	fa0,192(s0)
    2a0c:	6874                	flw	fa3,84(s0)
    2a0e:	2065                	jal	2ab6 <__global_pointer+0x3ce>
    2a10:	6f66                	flw	ft10,88(sp)
    2a12:	7275                	lui	tp,0xffffd
    2a14:	6874                	flw	fa3,84(s0)
    2a16:	7320                	flw	fs0,96(a4)
    2a18:	6174                	flw	fa3,68(a0)
    2a1a:	2072                	fld	ft0,280(sp)
    2a1c:	6e617267          	0x6e617267
    2a20:	7374                	flw	fa3,100(a4)
    2a22:	7920                	flw	fs0,112(a0)
    2a24:	7320756f          	jal	a0,a156 <__global_pointer+0x7a6e>
    2a28:	7274                	flw	fa3,100(a2)
    2a2a:	6e65                	lui	t3,0x19
    2a2c:	0a687467          	0xa687467
    2a30:	000a                	c.slli	zero,0x2
    2a32:	0000                	unimp
    2a34:	6550                	flw	fa2,12(a0)
    2a36:	6872                	flw	fa6,28(sp)
    2a38:	7061                	c.lui	zero,0xffff8
    2a3a:	6f792073          	csrs	0x6f7,s2
    2a3e:	2075                	jal	2aea <__global_pointer+0x402>
    2a40:	756f6873          	csrrsi	a6,0x756,30
    2a44:	646c                	flw	fa1,76(s0)
    2a46:	6120                	flw	fs0,64(a0)
    2a48:	696c                	flw	fa1,84(a0)
    2a4a:	74206e67          	0x74206e67
    2a4e:	6568                	flw	fa0,76(a0)
    2a50:	7420                	flw	fs0,104(s0)
    2a52:	6c65                	lui	s8,0x19
    2a54:	7365                	lui	t1,0xffff9
    2a56:	65706f63          	bltu	zero,s7,30b4 <__global_pointer+0x9cc>
    2a5a:	7720                	flw	fs0,104(a4)
    2a5c:	7469                	lui	s0,0xffffa
    2a5e:	2068                	fld	fa0,192(s0)
    2a60:	6874                	flw	fa3,84(s0)
    2a62:	2065                	jal	2b0a <__global_pointer+0x422>
    2a64:	7262                	flw	ft4,56(sp)
    2a66:	6769                	lui	a4,0x1a
    2a68:	7468                	flw	fa0,108(s0)
    2a6a:	7365                	lui	t1,0xffff9
    2a6c:	2074                	fld	fa3,192(s0)
    2a6e:	72617473          	csrrci	s0,0x726,2
    2a72:	000a0a3f 73410000 	0x73410000000a0a3f
    2a7a:	7920                	flw	fs0,112(a0)
    2a7c:	6120756f          	jal	a0,a08e <__global_pointer+0x79a6>
    2a80:	7070                	flw	fa2,100(s0)
    2a82:	6f72                	flw	ft10,28(sp)
    2a84:	6361                	lui	t1,0x18
    2a86:	2068                	fld	fa0,192(s0)
    2a88:	6874                	flw	fa3,84(s0)
    2a8a:	2065                	jal	2b32 <__global_pointer+0x44a>
    2a8c:	6874                	flw	fa3,84(s0)
    2a8e:	6f72                	flw	ft10,28(sp)
    2a90:	656e                	flw	fa0,216(sp)
    2a92:	7920                	flw	fs0,112(a0)
    2a94:	6820756f          	jal	a0,a116 <__global_pointer+0x7a2e>
    2a98:	6165                	addi	sp,sp,112
    2a9a:	2072                	fld	ft0,280(sp)
    2a9c:	2061                	jal	2b24 <__global_pointer+0x43c>
    2a9e:	6f76                	flw	ft10,92(sp)
    2aa0:	6369                	lui	t1,0x1a
    2aa2:	2065                	jal	2b4a <__global_pointer+0x462>
    2aa4:	6e69                	lui	t3,0x1a
    2aa6:	7920                	flw	fs0,112(a0)
    2aa8:	2072756f          	jal	a0,2a4ae <__global_pointer+0x27dc6>
    2aac:	6568                	flw	fa0,76(a0)
    2aae:	6461                	lui	s0,0x18
    2ab0:	7420                	flw	fs0,104(s0)
    2ab2:	6c65                	lui	s8,0x19
    2ab4:	696c                	flw	fa1,84(a0)
    2ab6:	676e                	flw	fa4,216(sp)
    2ab8:	7920                	flw	fs0,112(a0)
    2aba:	7420756f          	jal	a0,a1fc <__global_pointer+0x7b14>
    2abe:	6973206f          	j	35954 <__global_pointer+0x3326c>
    2ac2:	2074                	fld	fa3,192(s0)
    2ac4:	69206e6f          	jal	t3,9156 <__global_pointer+0x6a6e>
    2ac8:	2074                	fld	fa3,192(s0)
    2aca:	3128                	fld	fa0,96(a0)
    2acc:	7420                	flw	fs0,104(s0)
    2ace:	6973206f          	j	35964 <__global_pointer+0x3327c>
    2ad2:	2074                	fld	fa3,192(s0)
    2ad4:	74206e6f          	jal	t3,9216 <__global_pointer+0x6b2e>
    2ad8:	6568                	flw	fa0,76(a0)
    2ada:	7420                	flw	fs0,104(s0)
    2adc:	7268                	flw	fa0,100(a2)
    2ade:	29656e6f          	jal	t3,58d74 <__global_pointer+0x5668c>
    2ae2:	0a0a                	slli	s4,s4,0x2
    2ae4:	0000                	unimp
    2ae6:	0000                	unimp
    2ae8:	74746953          	0x74746953
    2aec:	6e69                	lui	t3,0x1a
    2aee:	6e6f2067          	0x6e6f2067
    2af2:	7420                	flw	fs0,104(s0)
    2af4:	6568                	flw	fa0,76(a0)
    2af6:	7420                	flw	fs0,104(s0)
    2af8:	7268                	flw	fa0,100(a2)
    2afa:	20656e6f          	jal	t3,58d00 <__global_pointer+0x56618>
    2afe:	616d                	addi	sp,sp,240
    2b00:	2073656b          	0x2073656b
    2b04:	6f79                	lui	t5,0x1e
    2b06:	2075                	jal	2bb2 <__global_pointer+0x4ca>
    2b08:	67727573          	csrrci	a0,0x677,4
    2b0c:	2065                	jal	2bb4 <__global_pointer+0x4cc>
    2b0e:	68746977          	0x68746977
    2b12:	7020                	flw	fs0,96(s0)
    2b14:	7265776f          	jal	a4,5a23a <__global_pointer+0x57b52>
    2b18:	0a2e                	slli	s4,s4,0xb
    2b1a:	000a                	c.slli	zero,0x2
    2b1c:	694c                	flw	fa1,20(a0)
    2b1e:	6e657473          	csrrci	s0,0x6e6,10
    2b22:	7420                	flw	fs0,104(s0)
    2b24:	6874206f          	j	459aa <__global_pointer+0x432c2>
    2b28:	2065                	jal	2bd0 <__global_pointer+0x4e8>
    2b2a:	6f76                	flw	ft10,92(sp)
    2b2c:	6369                	lui	t1,0x1a
    2b2e:	2065                	jal	2bd6 <__global_pointer+0x4ee>
    2b30:	6e69                	lui	t3,0x1a
    2b32:	7920                	flw	fs0,112(a0)
    2b34:	2072756f          	jal	a0,2a53a <__global_pointer+0x27e52>
    2b38:	6568                	flw	fa0,76(a0)
    2b3a:	6461                	lui	s0,0x18
    2b3c:	000a                	c.slli	zero,0x2
    2b3e:	0000                	unimp
    2b40:	6148                	flw	fa0,4(a0)
    2b42:	6976                	flw	fs2,92(sp)
    2b44:	676e                	flw	fa4,216(sp)
    2b46:	6420                	flw	fs0,72(s0)
    2b48:	6665                	lui	a2,0x19
    2b4a:	6165                	addi	sp,sp,112
    2b4c:	6574                	flw	fa3,76(a0)
    2b4e:	2064                	fld	fs1,192(s0)
    2b50:	6874                	flw	fa3,84(s0)
    2b52:	2065                	jal	2bfa <__global_pointer+0x512>
    2b54:	6f62                	flw	ft10,24(sp)
    2b56:	202c7373          	csrrci	t1,0x202,24
    2b5a:	7469                	lui	s0,0xffffa
    2b5c:	7320                	flw	fs0,96(a4)
    2b5e:	6565                	lui	a0,0x19
    2b60:	736d                	lui	t1,0xffffb
    2b62:	7920                	flw	fs0,112(a0)
    2b64:	6e20756f          	jal	a0,a246 <__global_pointer+0x7b5e>
    2b68:	6320776f          	jal	a4,a19a <__global_pointer+0x7ab2>
    2b6c:	6e61                	lui	t3,0x18
    2b6e:	6f20                	flw	fs0,88(a4)
    2b70:	6570                	flw	fa2,76(a0)
    2b72:	206e                	fld	ft0,216(sp)
    2b74:	6874                	flw	fa3,84(s0)
    2b76:	2065                	jal	2c1e <__global_pointer+0x536>
    2b78:	6176                	flw	ft2,92(sp)
    2b7a:	6c75                	lui	s8,0x1d
    2b7c:	2e74                	fld	fa3,216(a2)
    2b7e:	2e2e                	fld	ft8,200(sp)
    2b80:	000a                	c.slli	zero,0x2
    2b82:	0000                	unimp
    2b84:	6f59                	lui	t5,0x16
    2b86:	2075                	jal	2c32 <__global_pointer+0x54a>
    2b88:	6e65706f          	j	5a26e <__global_pointer+0x57b86>
    2b8c:	7420                	flw	fs0,104(s0)
    2b8e:	6568                	flw	fa0,76(a0)
    2b90:	7620                	flw	fs0,104(a2)
    2b92:	7561                	lui	a0,0xffff8
    2b94:	746c                	flw	fa1,108(s0)
    2b96:	6620                	flw	fs0,72(a2)
    2b98:	6e69                	lui	t3,0x1a
    2b9a:	6964                	flw	fs1,84(a0)
    2b9c:	676e                	flw	fa4,216(sp)
    2b9e:	6120                	flw	fs0,64(a0)
    2ba0:	6820                	flw	fs0,80(s0)
    2ba2:	6472616f          	jal	sp,299e8 <__global_pointer+0x27300>
    2ba6:	6f20                	flw	fs0,88(a4)
    2ba8:	2066                	fld	ft0,88(sp)
    2baa:	7274                	flw	fa3,100(a2)
    2bac:	6165                	addi	sp,sp,112
    2bae:	65727573          	csrrci	a0,0x657,4
    2bb2:	6920                	flw	fs0,80(a0)
    2bb4:	736e                	flw	ft6,248(sp)
    2bb6:	6469                	lui	s0,0x1a
    2bb8:	2165                	jal	3060 <__global_pointer+0x978>
    2bba:	0a0a                	slli	s4,s4,0x2
    2bbc:	0000                	unimp
    2bbe:	0000                	unimp
    2bc0:	6f59                	lui	t5,0x16
    2bc2:	2775                	jal	336e <__global_pointer+0xc86>
    2bc4:	6576                	flw	fa0,92(sp)
    2bc6:	6220                	flw	fs0,64(a2)
    2bc8:	6165                	addi	sp,sp,112
    2bca:	6574                	flw	fa3,76(a0)
    2bcc:	206e                	fld	ft0,216(sp)
    2bce:	6874                	flw	fa3,84(s0)
    2bd0:	2065                	jal	2c78 <__global_pointer+0x590>
    2bd2:	656d6167          	0x656d6167
    2bd6:	2021                	jal	2bde <__global_pointer+0x4f6>
    2bd8:	676e6f43          	fmadd.q	ft10,ft8,fs6,fa2,unknown
    2bdc:	6172                	flw	ft2,28(sp)
    2bde:	7574                	flw	fa3,108(a0)
    2be0:	616c                	flw	fa1,68(a0)
    2be2:	6974                	flw	fa3,84(a0)
    2be4:	21736e6f          	jal	t3,395fa <__global_pointer+0x36f12>
    2be8:	000a                	c.slli	zero,0x2
    2bea:	0000                	unimp
    2bec:	6854                	flw	fa3,20(s0)
    2bee:	2065                	jal	2c96 <__global_pointer+0x5ae>
    2bf0:	6176                	flw	ft2,92(sp)
    2bf2:	6c75                	lui	s8,0x1d
    2bf4:	2074                	fld	fa3,192(s0)
    2bf6:	7369                	lui	t1,0xffffa
    2bf8:	6c20                	flw	fs0,88(s0)
    2bfa:	656b636f          	jal	t1,b9250 <__global_pointer+0xb6b68>
    2bfe:	2c64                	fld	fs1,216(s0)
    2c00:	6920                	flw	fs0,80(a0)
    2c02:	2074                	fld	fa3,192(s0)
    2c04:	6d656573          	csrrsi	a0,0x6d6,10
    2c08:	696c2073          	csrs	0x696,s8
    2c0c:	6120656b          	0x6120656b
    2c10:	7020                	flw	fs0,96(s0)
    2c12:	7265776f          	jal	a4,5a338 <__global_pointer+0x57c50>
    2c16:	7566                	flw	fa0,120(sp)
    2c18:	206c                	fld	fa1,192(s0)
    2c1a:	616d                	addi	sp,sp,240
    2c1c:	20636967          	0x20636967
    2c20:	7369                	lui	t1,0xffffa
    2c22:	6b20                	flw	fs0,80(a4)
    2c24:	6565                	lui	a0,0x19
    2c26:	6970                	flw	fa2,84(a0)
    2c28:	676e                	flw	fa4,216(sp)
    2c2a:	6920                	flw	fs0,80(a0)
    2c2c:	2074                	fld	fa3,192(s0)
    2c2e:	6c616573          	csrrsi	a0,0x6c6,2
    2c32:	6465                	lui	s0,0x19
    2c34:	0a2e                	slli	s4,s4,0xb
    2c36:	0000                	unimp
    2c38:	6f59                	lui	t5,0x16
    2c3a:	2075                	jal	2ce6 <__global_pointer+0x5fe>
    2c3c:	6168                	flw	fa0,68(a0)
    2c3e:	6576                	flw	fa0,92(sp)
    2c40:	6120                	flw	fs0,64(a0)
    2c42:	726c                	flw	fa1,100(a2)
    2c44:	6165                	addi	sp,sp,112
    2c46:	7964                	flw	fs1,116(a0)
    2c48:	7320                	flw	fs0,96(a4)
    2c4a:	65766c6f          	jal	s8,69aa0 <__global_pointer+0x673b8>
    2c4e:	2064                	fld	fs1,192(s0)
    2c50:	6874                	flw	fa3,84(s0)
    2c52:	7369                	lui	t1,0xffffa
    2c54:	7020                	flw	fs0,96(s0)
    2c56:	7a75                	lui	s4,0xffffd
    2c58:	6c7a                	flw	fs8,156(sp)
    2c5a:	2e65                	jal	3012 <__global_pointer+0x92a>
    2c5c:	0a0a                	slli	s4,s4,0x2
    2c5e:	0000                	unimp
    2c60:	6854                	flw	fa3,20(s0)
    2c62:	7265                	lui	tp,0xffff9
    2c64:	2065                	jal	2d0c <__global_pointer+0x624>
    2c66:	7369                	lui	t1,0xffffa
    2c68:	6e20                	flw	fs0,88(a2)
    2c6a:	7570206f          	j	5bc0 <__global_pointer+0x34d8>
    2c6e:	7a7a                	flw	fs4,188(sp)
    2c70:	656c                	flw	fa1,76(a0)
    2c72:	202c                	fld	fa1,64(s0)
    2c74:	796c6e6f          	jal	t3,c940a <__global_pointer+0xc6d22>
    2c78:	6220                	flw	fs0,64(a2)
    2c7a:	6165                	addi	sp,sp,112
    2c7c:	7475                	lui	s0,0xffffd
    2c7e:	6669                	lui	a2,0x1a
    2c80:	6c75                	lui	s8,0x1d
    2c82:	7320                	flw	fs0,96(a4)
    2c84:	656e6563          	bltu	t3,s6,32ce <__global_pointer+0xbe6>
    2c88:	7972                	flw	fs2,60(sp)
    2c8a:	0a0a                	slli	s4,s4,0x2
    2c8c:	0000                	unimp
    2c8e:	0000                	unimp
    2c90:	6f4e                	flw	ft10,208(sp)
    2c92:	7020                	flw	fs0,96(s0)
    2c94:	7a75                	lui	s4,0xffffd
    2c96:	6c7a                	flw	fs8,156(sp)
    2c98:	2065                	jal	2d40 <__global_pointer+0x658>
    2c9a:	6f74                	flw	fa3,92(a4)
    2c9c:	7320                	flw	fs0,96(a4)
    2c9e:	65766c6f          	jal	s8,69af4 <__global_pointer+0x6740c>
    2ca2:	6820                	flw	fs0,80(s0)
    2ca4:	7265                	lui	tp,0xffff9
    2ca6:	2e65                	jal	305e <__global_pointer+0x976>
    2ca8:	000a                	c.slli	zero,0x2
    2caa:	0000                	unimp
    2cac:	6e45                	lui	t3,0x11
    2cae:	7274                	flw	fa3,100(a2)
    2cb0:	6e61                	lui	t3,0x18
    2cb2:	48206563          	bltu	zero,sp,313c <__global_pointer+0xa54>
    2cb6:	6c61                	lui	s8,0x18
    2cb8:	006c                	addi	a1,sp,12
    2cba:	0000                	unimp
    2cbc:	6920                	flw	fs0,80(a0)
    2cbe:	72672073          	csrs	0x726,a4
    2cc2:	6e61                	lui	t3,0x18
    2cc4:	2064                	fld	fs1,192(s0)
    2cc6:	6e61                	lui	t3,0x18
    2cc8:	2064                	fld	fs1,192(s0)
    2cca:	636c6577          	0x636c6577
    2cce:	6e696d6f          	jal	s10,993b4 <__global_pointer+0x96ccc>
    2cd2:	00002e67          	0x2e67
    2cd6:	0000                	unimp
    2cd8:	694c                	flw	fa1,20(a0)
    2cda:	7262                	flw	ft4,56(sp)
    2cdc:	7261                	lui	tp,0xffff8
    2cde:	0079                	c.nop	30
    2ce0:	6920                	flw	fs0,80(a0)
    2ce2:	69662073          	csrs	0x696,a2
    2ce6:	6c6c                	flw	fa1,92(s0)
    2ce8:	6465                	lui	s0,0x19
    2cea:	7720                	flw	fs0,104(a4)
    2cec:	7469                	lui	s0,0xffffa
    2cee:	2068                	fld	fa0,192(s0)
    2cf0:	7564                	flw	fs1,108(a0)
    2cf2:	20797473          	csrrci	s0,0x207,18
    2cf6:	20646c6f          	jal	s8,48efc <__global_pointer+0x46814>
    2cfa:	6f62                	flw	ft10,24(sp)
    2cfc:	2e736b6f          	jal	s6,397e2 <__global_pointer+0x370fa>
    2d00:	0000                	unimp
    2d02:	0000                	unimp
    2d04:	7241                	lui	tp,0xffff0
    2d06:	6f6d                	lui	t5,0x1b
    2d08:	7972                	flw	fs2,60(sp)
    2d0a:	0000                	unimp
    2d0c:	6820                	flw	fs0,80(s0)
    2d0e:	73646c6f          	jal	s8,49444 <__global_pointer+0x46d5c>
    2d12:	7720                	flw	fs0,104(a4)
    2d14:	6165                	addi	sp,sp,112
    2d16:	6f70                	flw	fa2,92(a4)
    2d18:	736e                	flw	ft6,248(sp)
    2d1a:	6f20                	flw	fs0,88(a4)
    2d1c:	2066                	fld	ft0,88(sp)
    2d1e:	6c61                	lui	s8,0x18
    2d20:	206c                	fld	fa1,192(s0)
    2d22:	646e696b          	0x646e696b
    2d26:	00002e73          	csrr	t3,ustatus
    2d2a:	0000                	unimp
    2d2c:	6944                	flw	fs1,20(a0)
    2d2e:	696e                	flw	fs2,216(sp)
    2d30:	676e                	flw	fa4,216(sp)
    2d32:	5220                	lw	s0,96(a2)
    2d34:	006d6f6f          	jal	t5,d8d3a <__global_pointer+0xd6652>
    2d38:	7320                	flw	fs0,96(a4)
    2d3a:	656d                	lui	a0,0x1b
    2d3c:	6c6c                	flw	fa1,92(s0)
    2d3e:	666f2073          	csrs	0x666,t5
    2d42:	6420                	flw	fs0,72(s0)
    2d44:	6c65                	lui	s8,0x19
    2d46:	6369                	lui	t1,0x1a
    2d48:	6f69                	lui	t5,0x1a
    2d4a:	7375                	lui	t1,0xffffd
    2d4c:	6620                	flw	fs0,72(a2)
    2d4e:	2e646f6f          	jal	t5,49034 <__global_pointer+0x4694c>
    2d52:	0000                	unimp
    2d54:	64726147          	fmsub.h	ft2,ft4,ft7,fa2,unknown
    2d58:	6e65                	lui	t3,0x19
    2d5a:	0000                	unimp
    2d5c:	6920                	flw	fs0,80(a0)
    2d5e:	65702073          	csrr	zero,0x657
    2d62:	6361                	lui	t1,0x18
    2d64:	6665                	lui	a2,0x19
    2d66:	6c75                	lui	s8,0x1d
    2d68:	6120                	flw	fs0,64(a0)
    2d6a:	646e                	flw	fs0,216(sp)
    2d6c:	6620                	flw	fs0,72(a2)
    2d6e:	6172                	flw	ft2,28(sp)
    2d70:	6e617267          	0x6e617267
    2d74:	2e74                	fld	fa3,216(a2)
    2d76:	0000                	unimp
    2d78:	614c                	flw	fa1,4(a0)
    2d7a:	6f62                	flw	ft10,24(sp)
    2d7c:	6172                	flw	ft2,28(sp)
    2d7e:	6f74                	flw	fa3,92(a4)
    2d80:	7972                	flw	fs2,60(sp)
    2d82:	0000                	unimp
    2d84:	6820                	flw	fs0,80(s0)
    2d86:	7361                	lui	t1,0xffff8
    2d88:	7320                	flw	fs0,96(a4)
    2d8a:	7274                	flw	fa3,100(a2)
    2d8c:	6e61                	lui	t3,0x18
    2d8e:	73206567          	0x73206567
    2d92:	6e656963          	bltu	a0,t1,3484 <__global_pointer+0xd9c>
    2d96:	6974                	flw	fa3,84(a0)
    2d98:	6966                	flw	fs2,88(sp)
    2d9a:	71652063          	0x71652063
    2d9e:	6975                	lui	s2,0x1d
    2da0:	6d70                	flw	fa2,92(a0)
    2da2:	6e65                	lui	t3,0x19
    2da4:	2e74                	fld	fa3,216(a2)
    2da6:	0000                	unimp
    2da8:	6573624f          	fnmadd.h	ft4,ft6,fs7,fa2,unknown
    2dac:	7672                	flw	fa2,60(sp)
    2dae:	7461                	lui	s0,0xffff8
    2db0:	0079726f          	jal	tp,9a5b6 <__global_pointer+0x97ece>
    2db4:	6f20                	flw	fs0,88(a4)
    2db6:	6666                	flw	fa2,88(sp)
    2db8:	7265                	lui	tp,0xffff9
    2dba:	20612073          	csrs	0x206,sp
    2dbe:	6e757473          	csrrci	s0,0x6e7,10
    2dc2:	696e                	flw	fs2,216(sp)
    2dc4:	676e                	flw	fa4,216(sp)
    2dc6:	7620                	flw	fs0,104(a2)
    2dc8:	6569                	lui	a0,0x1a
    2dca:	666f2077          	0x666f2077
    2dce:	7420                	flw	fs0,104(s0)
    2dd0:	6568                	flw	fa0,76(a0)
    2dd2:	7320                	flw	fs0,96(a4)
    2dd4:	6174                	flw	fa3,68(a0)
    2dd6:	7372                	flw	ft6,60(sp)
    2dd8:	002e                	c.slli	zero,0xb
    2dda:	0000                	unimp
    2ddc:	6854                	flw	fa3,20(s0)
    2dde:	6f72                	flw	ft10,28(sp)
    2de0:	656e                	flw	fa0,216(sp)
    2de2:	5220                	lw	s0,96(a2)
    2de4:	006d6f6f          	jal	t5,d8dea <__global_pointer+0xd6702>
    2de8:	6520                	flw	fs0,72(a0)
    2dea:	7578                	flw	fa4,108(a0)
    2dec:	6564                	flw	fs1,76(a0)
    2dee:	6f702073          	csrr	zero,0x6f7
    2df2:	20726577          	0x20726577
    2df6:	6e61                	lui	t3,0x18
    2df8:	2064                	fld	fs1,192(s0)
    2dfa:	7561                	lui	a0,0xffff8
    2dfc:	6874                	flw	fa3,84(s0)
    2dfe:	7469726f          	jal	tp,9a544 <__global_pointer+0x97e5c>
    2e02:	2e79                	jal	31a0 <__global_pointer+0xab8>
    2e04:	0000                	unimp
    2e06:	0000                	unimp
    2e08:	7544                	flw	fs1,44(a0)
    2e0a:	676e                	flw	fa4,216(sp)
    2e0c:	6f65                	lui	t5,0x19
    2e0e:	006e                	c.slli	zero,0x1b
    2e10:	6920                	flw	fs0,80(a0)
    2e12:	61642073          	csrs	0x616,s0
    2e16:	6b72                	flw	fs6,28(sp)
    2e18:	6120                	flw	fs0,64(a0)
    2e1a:	646e                	flw	fs0,216(sp)
    2e1c:	6620                	flw	fs0,72(a2)
    2e1e:	6265726f          	jal	tp,5a444 <__global_pointer+0x57d5c>
    2e22:	6e69646f          	jal	s0,99508 <__global_pointer+0x96e20>
    2e26:	00002e67          	0x2e67
    2e2a:	0000                	unimp
    2e2c:	6f59                	lui	t5,0x16
    2e2e:	2075                	jal	2eda <__global_pointer+0x7f2>
    2e30:	7261                	lui	tp,0xffff8
    2e32:	2065                	jal	2eda <__global_pointer+0x7f2>
    2e34:	6e69                	lui	t3,0x1a
    2e36:	7420                	flw	fs0,104(s0)
    2e38:	6568                	flw	fa0,76(a0)
    2e3a:	0020                	addi	s0,sp,8
    2e3c:	202e                	fld	ft0,200(sp)
    2e3e:	7449                	lui	s0,0xffff2
    2e40:	0000                	unimp
    2e42:	0000                	unimp
    2e44:	6854                	flw	fa3,20(s0)
    2e46:	2065                	jal	2eee <__global_pointer+0x806>
    2e48:	6e45                	lui	t3,0x11
    2e4a:	7274                	flw	fa3,100(a2)
    2e4c:	6e61                	lui	t3,0x18
    2e4e:	48206563          	bltu	zero,sp,32d8 <__global_pointer+0xbf0>
    2e52:	6c61                	lui	s8,0x18
    2e54:	206c                	fld	fa1,192(s0)
    2e56:	7369                	lui	t1,0xffffa
    2e58:	6720                	flw	fs0,72(a4)
    2e5a:	6172                	flw	ft2,28(sp)
    2e5c:	646e                	flw	fs0,216(sp)
    2e5e:	6120                	flw	fs0,64(a0)
    2e60:	646e                	flw	fs0,216(sp)
    2e62:	7720                	flw	fs0,104(a4)
    2e64:	6c65                	lui	s8,0x19
    2e66:	696d6f63          	bltu	s10,s6,3504 <__global_pointer+0xe1c>
    2e6a:	676e                	flw	fa4,216(sp)
    2e6c:	0a2e                	slli	s4,s4,0xb
    2e6e:	000a                	c.slli	zero,0x2
    2e70:	6854                	flw	fa3,20(s0)
    2e72:	2065                	jal	2f1a <__global_pointer+0x832>
    2e74:	694c                	flw	fa1,20(a0)
    2e76:	7262                	flw	ft4,56(sp)
    2e78:	7261                	lui	tp,0xffff8
    2e7a:	2079                	jal	2f08 <__global_pointer+0x820>
    2e7c:	7369                	lui	t1,0xffffa
    2e7e:	6620                	flw	fs0,72(a2)
    2e80:	6c69                	lui	s8,0x1a
    2e82:	656c                	flw	fa1,76(a0)
    2e84:	2064                	fld	fs1,192(s0)
    2e86:	68746977          	0x68746977
    2e8a:	6420                	flw	fs0,72(s0)
    2e8c:	7375                	lui	t1,0xffffd
    2e8e:	7974                	flw	fa3,116(a0)
    2e90:	6f20                	flw	fs0,88(a4)
    2e92:	646c                	flw	fa1,76(s0)
    2e94:	6220                	flw	fs0,64(a2)
    2e96:	736b6f6f          	jal	t5,b95cc <__global_pointer+0xb6ee4>
    2e9a:	0a2e                	slli	s4,s4,0xb
    2e9c:	000a                	c.slli	zero,0x2
    2e9e:	0000                	unimp
    2ea0:	6854                	flw	fa3,20(s0)
    2ea2:	2065                	jal	2f4a <__global_pointer+0x862>
    2ea4:	7241                	lui	tp,0xffff0
    2ea6:	6f6d                	lui	t5,0x1b
    2ea8:	7972                	flw	fs2,60(sp)
    2eaa:	6820                	flw	fs0,80(s0)
    2eac:	73646c6f          	jal	s8,495e2 <__global_pointer+0x46efa>
    2eb0:	7720                	flw	fs0,104(a4)
    2eb2:	6165                	addi	sp,sp,112
    2eb4:	6f70                	flw	fa2,92(a4)
    2eb6:	736e                	flw	ft6,248(sp)
    2eb8:	6f20                	flw	fs0,88(a4)
    2eba:	2066                	fld	ft0,88(sp)
    2ebc:	6c61                	lui	s8,0x18
    2ebe:	206c                	fld	fa1,192(s0)
    2ec0:	646e696b          	0x646e696b
    2ec4:	0a0a2e73          	csrrs	t3,0xa0,s4
    2ec8:	0000                	unimp
    2eca:	0000                	unimp
    2ecc:	6854                	flw	fa3,20(s0)
    2ece:	2065                	jal	2f76 <__global_pointer+0x88e>
    2ed0:	6944                	flw	fs1,20(a0)
    2ed2:	696e                	flw	fs2,216(sp)
    2ed4:	676e                	flw	fa4,216(sp)
    2ed6:	5220                	lw	s0,96(a2)
    2ed8:	206d6f6f          	jal	t5,d90de <__global_pointer+0xd69f6>
    2edc:	6c656d73          	csrrsi	s10,0x6c6,10
    2ee0:	736c                	flw	fa1,100(a4)
    2ee2:	6f20                	flw	fs0,88(a4)
    2ee4:	2066                	fld	ft0,88(sp)
    2ee6:	6564                	flw	fs1,76(a0)
    2ee8:	696c                	flw	fa1,84(a0)
    2eea:	756f6963          	bltu	t5,s6,363c <__global_pointer+0xf54>
    2eee:	6f662073          	csrs	0x6f6,a2
    2ef2:	0a2e646f          	jal	s0,e8f94 <__global_pointer+0xe68ac>
    2ef6:	000a                	c.slli	zero,0x2
    2ef8:	6854                	flw	fa3,20(s0)
    2efa:	2065                	jal	2fa2 <__global_pointer+0x8ba>
    2efc:	64726147          	fmsub.h	ft2,ft4,ft7,fa2,unknown
    2f00:	6e65                	lui	t3,0x19
    2f02:	6920                	flw	fs0,80(a0)
    2f04:	65702073          	csrr	zero,0x657
    2f08:	6361                	lui	t1,0x18
    2f0a:	6665                	lui	a2,0x19
    2f0c:	6c75                	lui	s8,0x1d
    2f0e:	6120                	flw	fs0,64(a0)
    2f10:	646e                	flw	fs0,216(sp)
    2f12:	6620                	flw	fs0,72(a2)
    2f14:	6172                	flw	ft2,28(sp)
    2f16:	6e617267          	0x6e617267
    2f1a:	2e74                	fld	fa3,216(a2)
    2f1c:	0a0a                	slli	s4,s4,0x2
    2f1e:	0000                	unimp
    2f20:	6854                	flw	fa3,20(s0)
    2f22:	2065                	jal	2fca <__global_pointer+0x8e2>
    2f24:	614c                	flw	fa1,4(a0)
    2f26:	6f62                	flw	ft10,24(sp)
    2f28:	6172                	flw	ft2,28(sp)
    2f2a:	6f74                	flw	fa3,92(a4)
    2f2c:	7972                	flw	fs2,60(sp)
    2f2e:	6820                	flw	fs0,80(s0)
    2f30:	7361                	lui	t1,0xffff8
    2f32:	7320                	flw	fs0,96(a4)
    2f34:	7274                	flw	fa3,100(a2)
    2f36:	6e61                	lui	t3,0x18
    2f38:	73206567          	0x73206567
    2f3c:	6e656963          	bltu	a0,t1,362e <__global_pointer+0xf46>
    2f40:	6974                	flw	fa3,84(a0)
    2f42:	6966                	flw	fs2,88(sp)
    2f44:	71652063          	0x71652063
    2f48:	6975                	lui	s2,0x1d
    2f4a:	6d70                	flw	fa2,92(a0)
    2f4c:	6e65                	lui	t3,0x19
    2f4e:	2e74                	fld	fa3,216(a2)
    2f50:	0a0a                	slli	s4,s4,0x2
    2f52:	0000                	unimp
    2f54:	6854                	flw	fa3,20(s0)
    2f56:	2065                	jal	2ffe <__global_pointer+0x916>
    2f58:	6573624f          	fnmadd.h	ft4,ft6,fs7,fa2,unknown
    2f5c:	7672                	flw	fa2,60(sp)
    2f5e:	7461                	lui	s0,0xffff8
    2f60:	2079726f          	jal	tp,9a966 <__global_pointer+0x9827e>
    2f64:	6566666f          	jal	a2,695ba <__global_pointer+0x66ed2>
    2f68:	7372                	flw	ft6,60(sp)
    2f6a:	6120                	flw	fs0,64(a0)
    2f6c:	7320                	flw	fs0,96(a4)
    2f6e:	7574                	flw	fa3,108(a0)
    2f70:	6e6e                	flw	ft8,216(sp)
    2f72:	6e69                	lui	t3,0x1a
    2f74:	69762067          	0x69762067
    2f78:	7765                	lui	a4,0xffff9
    2f7a:	6f20                	flw	fs0,88(a4)
    2f7c:	2066                	fld	ft0,88(sp)
    2f7e:	6874                	flw	fa3,84(s0)
    2f80:	2065                	jal	3028 <__global_pointer+0x940>
    2f82:	72617473          	csrrci	s0,0x726,2
    2f86:	0a0a2e73          	csrrs	t3,0xa0,s4
    2f8a:	0000                	unimp
    2f8c:	6854                	flw	fa3,20(s0)
    2f8e:	2065                	jal	3036 <__global_pointer+0x94e>
    2f90:	6854                	flw	fa3,20(s0)
    2f92:	6f72                	flw	ft10,28(sp)
    2f94:	656e                	flw	fa0,216(sp)
    2f96:	5220                	lw	s0,96(a2)
    2f98:	206d6f6f          	jal	t5,d919e <__global_pointer+0xd6ab6>
    2f9c:	7865                	lui	a6,0xffff9
    2f9e:	6475                	lui	s0,0x1d
    2fa0:	7365                	lui	t1,0xffff9
    2fa2:	7020                	flw	fs0,96(s0)
    2fa4:	7265776f          	jal	a4,5a6ca <__global_pointer+0x57fe2>
    2fa8:	6120                	flw	fs0,64(a0)
    2faa:	646e                	flw	fs0,216(sp)
    2fac:	6120                	flw	fs0,64(a0)
    2fae:	7475                	lui	s0,0xffffd
    2fb0:	6f68                	flw	fa0,92(a4)
    2fb2:	6972                	flw	fs2,28(sp)
    2fb4:	7974                	flw	fa3,116(a0)
    2fb6:	0a2e                	slli	s4,s4,0xb
    2fb8:	000a                	c.slli	zero,0x2
    2fba:	0000                	unimp
    2fbc:	6854                	flw	fa3,20(s0)
    2fbe:	2065                	jal	3066 <__global_pointer+0x97e>
    2fc0:	7544                	flw	fs1,44(a0)
    2fc2:	676e                	flw	fa4,216(sp)
    2fc4:	6f65                	lui	t5,0x19
    2fc6:	206e                	fld	ft0,216(sp)
    2fc8:	7369                	lui	t1,0xffffa
    2fca:	6420                	flw	fs0,72(s0)
    2fcc:	7261                	lui	tp,0xffff8
    2fce:	6e61206b          	0x6e61206b
    2fd2:	2064                	fld	fs1,192(s0)
    2fd4:	6f66                	flw	ft10,88(sp)
    2fd6:	6572                	flw	fa0,28(sp)
    2fd8:	6f62                	flw	ft10,24(sp)
    2fda:	6964                	flw	fs1,84(a0)
    2fdc:	676e                	flw	fa4,216(sp)
    2fde:	0a2e                	slli	s4,s4,0xb
    2fe0:	000a                	c.slli	zero,0x2
    2fe2:	0000                	unimp
    2fe4:	6e55                	lui	t3,0x15
    2fe6:	776f6e6b          	0x776f6e6b
    2fea:	206e                	fld	ft0,216(sp)
    2fec:	6f72                	flw	ft10,28(sp)
    2fee:	0a2e6d6f          	jal	s10,e9090 <__global_pointer+0xe69a8>
    2ff2:	000a                	c.slli	zero,0x2
    2ff4:	6954                	flw	fa3,20(a0)
    2ff6:	656d                	lui	a0,0x1b
    2ff8:	2072                	fld	ft0,280(sp)
    2ffa:	6966                	flw	fs2,88(sp)
    2ffc:	696e                	flw	fs2,216(sp)
    2ffe:	64656873          	csrrsi	a6,0x646,10
    3002:	0a21                	addi	s4,s4,8
	...

Disassembly of section .comment:

00000000 <.comment>:
   0:	3a434347          	fmsub.d	ft6,ft6,ft4,ft7,rmm
   4:	2820                	fld	fs0,80(s0)
   6:	69466953          	0x69466953
   a:	6576                	flw	fa0,92(sp)
   c:	4720                	lw	s0,72(a4)
   e:	4d2d4343          	fmadd.h	ft6,fs10,fs2,fs1,rmm
  12:	7465                	lui	s0,0xffff9
  14:	6c61                	lui	s8,0x18
  16:	3120                	fld	fs0,96(a0)
  18:	2e30                	fld	fa2,88(a2)
  1a:	2e32                	fld	ft8,264(sp)
  1c:	2d30                	fld	fa2,88(a0)
  1e:	3032                	fld	ft0,296(sp)
  20:	3032                	fld	ft0,296(sp)
  22:	312e                	fld	ft2,232(sp)
  24:	2e32                	fld	ft8,264(sp)
  26:	2938                	fld	fa4,80(a0)
  28:	3120                	fld	fs0,96(a0)
  2a:	2e30                	fld	fa2,88(a2)
  2c:	2e32                	fld	ft8,264(sp)
  2e:	0030                	addi	a2,sp,8

Disassembly of section .riscv.attributes:

00000000 <.riscv.attributes>:
   0:	2441                	jal	280 <boss_take_action+0xcc>
   2:	0000                	unimp
   4:	7200                	flw	fs0,32(a2)
   6:	7369                	lui	t1,0xffffa
   8:	01007663          	bgeu	zero,a6,14 <_isr_routine+0xc>
   c:	001a                	c.slli	zero,0x6
   e:	0000                	unimp
  10:	1004                	addi	s1,sp,32
  12:	7205                	lui	tp,0xfffe1
  14:	3376                	fld	ft6,376(sp)
  16:	6932                	flw	fs2,12(sp)
  18:	7032                	flw	ft0,44(sp)
  1a:	5f30                	lw	a2,120(a4)
  1c:	326d                	jal	fffff9c6 <_stack_end+0xffefc9be>
  1e:	3070                	fld	fa2,224(s0)
  20:	0800                	addi	s0,sp,16
  22:	0a01                	addi	s4,s4,0
  24:	0b              	Address 0x0000000000000024 is out of bounds.


Disassembly of section .stack:

00003005 <_stack_end-0x100003>:
	...
